---
triple:          'arm64-apple-darwin'
binary-path:     look
relocations:
  - { offset: 0x1E, size: 0x8, addend: 0x0, symName: __RINvMNtCslNfmTnNkGed_4core3stre12trim_matchesNCNvB2_4trim0ECs7HIRxJtMddX_4look, symObjAddr: 0x0, symBinAddr: 0x100000FB8, symSize: 0x110 }
  - { offset: 0xF8, size: 0x8, addend: 0x0, symName: __RNvXs1D_NtCsdEVMfzfmdlp_5alloc6stringeNtB6_12SpecToString14spec_to_stringCs7HIRxJtMddX_4look, symObjAddr: 0x240C, symBinAddr: 0x1000033A8, symSize: 0x50 }
  - { offset: 0x229, size: 0x8, addend: 0x0, symName: __RNvXsU_NtCsdEVMfzfmdlp_5alloc6stringNtB5_6StringNtNtCslNfmTnNkGed_4core3fmt5Write10write_charCs7HIRxJtMddX_4look, symObjAddr: 0x2B74, symBinAddr: 0x100003B10, symSize: 0x30 }
  - { offset: 0x266, size: 0x8, addend: 0x0, symName: __RNvXsU_NtCsdEVMfzfmdlp_5alloc6stringNtB5_6StringNtNtCslNfmTnNkGed_4core3fmt5Write9write_strCs7HIRxJtMddX_4look, symObjAddr: 0x2BA4, symBinAddr: 0x100003B40, symSize: 0x38 }
  - { offset: 0x2C7, size: 0x8, addend: 0x0, symName: __RNvXsq_NtCsdEVMfzfmdlp_5alloc6stringNtB5_6StringNtNtNtCslNfmTnNkGed_4core3ops5deref5Deref5derefCs7HIRxJtMddX_4look, symObjAddr: 0x2EE8, symBinAddr: 0x100003E84, symSize: 0x24 }
  - { offset: 0x2FB, size: 0x8, addend: 0x0, symName: __RNvXsj_NtCsdEVMfzfmdlp_5alloc6stringNtB5_6StringNtNtCslNfmTnNkGed_4core3fmt7Display3fmtCs7HIRxJtMddX_4look, symObjAddr: 0x2DF0, symBinAddr: 0x100003D8C, symSize: 0x80 }
  - { offset: 0x460, size: 0x8, addend: 0x0, symName: __RNvXsu_NtCsdEVMfzfmdlp_5alloc6stringeNtB5_8ToString9to_stringCs7HIRxJtMddX_4look, symObjAddr: 0x2F54, symBinAddr: 0x100003EF0, symSize: 0x28 }
  - { offset: 0x497, size: 0x8, addend: 0x0, symName: __RNvXsu_NtCsdEVMfzfmdlp_5alloc6stringlNtB5_8ToString9to_stringCs7HIRxJtMddX_4look, symObjAddr: 0x2F7C, symBinAddr: 0x100003F18, symSize: 0x24 }
  - { offset: 0x4D4, size: 0x8, addend: 0x0, symName: __RNvXsv_NtCsdEVMfzfmdlp_5alloc6stringlNtB5_12SpecToString14spec_to_stringCs7HIRxJtMddX_4look, symObjAddr: 0x2FA0, symBinAddr: 0x100003F3C, symSize: 0x11C }
  - { offset: 0x956, size: 0x8, addend: 0x0, symName: __RNvXs2_NtCsdEVMfzfmdlp_5alloc7raw_vecINtB5_6RawVecNtNtB7_6string6StringENtNtNtCslNfmTnNkGed_4core3ops4drop4Drop4dropCs7HIRxJtMddX_4look, symObjAddr: 0x27DC, symBinAddr: 0x100003778, symSize: 0x34 }
  - { offset: 0x9D6, size: 0x8, addend: 0x0, symName: __RINvXs_NtNtCsdEVMfzfmdlp_5alloc5slice4hackhNtB5_10ConvertVec6to_vecNtNtB9_5alloc6GlobalECs7HIRxJtMddX_4look, symObjAddr: 0x800, symBinAddr: 0x1000017A0, symSize: 0xD8 }
  - { offset: 0x1AB8, size: 0x8, addend: 0x0, symName: __RNvNvMs3_NtCslNfmTnNkGed_4core3numi13unchecked_neg18precondition_checkCs7HIRxJtMddX_4look, symObjAddr: 0x1A0C, symBinAddr: 0x1000029A8, symSize: 0x4C }
  - { offset: 0x1B9C, size: 0x8, addend: 0x0, symName: __RNvNvMs9_NtCslNfmTnNkGed_4core3numj13unchecked_add18precondition_checkCs7HIRxJtMddX_4look, symObjAddr: 0x1A58, symBinAddr: 0x1000029F4, symSize: 0x44 }
  - { offset: 0x1D32, size: 0x8, addend: 0x0, symName: __RNvMsw_NtCslNfmTnNkGed_4core3numy14from_str_radixCs7HIRxJtMddX_4look, symObjAddr: 0xE60, symBinAddr: 0x100001E00, symSize: 0x5A0 }
  - { offset: 0x2070, size: 0x8, addend: 0x0, symName: __RNvXsn_NtCslNfmTnNkGed_4core3numjNtNtNtB7_3str6traits7FromStr8from_strCs7HIRxJtMddX_4look, symObjAddr: 0x2E70, symBinAddr: 0x100003E0C, symSize: 0x78 }
  - { offset: 0x23CF, size: 0x8, addend: 0x0, symName: __RNvXs_NvNtNtCslNfmTnNkGed_4core3fmt5Write9write_fmtQNtNtCsdEVMfzfmdlp_5alloc6string6StringNtB4_12SpecWriteFmt14spec_write_fmtCs7HIRxJtMddX_4look, symObjAddr: 0x2C8C, symBinAddr: 0x100003C28, symSize: 0x164 }
  - { offset: 0x247E, size: 0x8, addend: 0x0, symName: __RNvYNtNtCsdEVMfzfmdlp_5alloc6string6StringNtNtCslNfmTnNkGed_4core3fmt5Write9write_fmtCs7HIRxJtMddX_4look, symObjAddr: 0x30BC, symBinAddr: 0x100004058, symSize: 0x24 }
  - { offset: 0x254B, size: 0x8, addend: 0x0, symName: __RNvXsV_NtNtCslNfmTnNkGed_4core3cmp5implsjNtB7_3Ord3cmpCs7HIRxJtMddX_4look, symObjAddr: 0x2BDC, symBinAddr: 0x100003B78, symSize: 0x38 }
  - { offset: 0x2685, size: 0x8, addend: 0x0, symName: __RINvMNtCslNfmTnNkGed_4core3stre12trim_matchesNCNvB2_4trim0ECs7HIRxJtMddX_4look, symObjAddr: 0x0, symBinAddr: 0x100000FB8, symSize: 0x110 }
  - { offset: 0x2846, size: 0x8, addend: 0x0, symName: __RINvMNtCslNfmTnNkGed_4core3stre5parsejECs7HIRxJtMddX_4look, symObjAddr: 0x110, symBinAddr: 0x1000010C8, symSize: 0x28 }
  - { offset: 0x2882, size: 0x8, addend: 0x0, symName: __RNCNvMNtCslNfmTnNkGed_4core3stre4trim0Cs7HIRxJtMddX_4look, symObjAddr: 0x8D8, symBinAddr: 0x100001878, symSize: 0x94 }
  - { offset: 0x292B, size: 0x8, addend: 0x0, symName: __RNvMNtCslNfmTnNkGed_4core3stre4trimCs7HIRxJtMddX_4look, symObjAddr: 0xCB8, symBinAddr: 0x100001C58, symSize: 0x28 }
  - { offset: 0x2959, size: 0x8, addend: 0x0, symName: __RNvMNtCslNfmTnNkGed_4core3stre5charsCs7HIRxJtMddX_4look, symObjAddr: 0xCE0, symBinAddr: 0x100001C80, symSize: 0x20 }
  - { offset: 0x2A8F, size: 0x8, addend: 0x0, symName: __RINvNtNtCslNfmTnNkGed_4core3str11validations15next_code_pointINtNtNtB6_5slice4iter4IterhEECs7HIRxJtMddX_4look, symObjAddr: 0x1C8, symBinAddr: 0x100001168, symSize: 0x20C }
  - { offset: 0x2D40, size: 0x8, addend: 0x0, symName: __RINvNtNtCslNfmTnNkGed_4core3str11validations23next_code_point_reverseINtNtNtB6_5slice4iter4IterhEECs7HIRxJtMddX_4look, symObjAddr: 0x3D4, symBinAddr: 0x100001374, symSize: 0x234 }
  - { offset: 0x3037, size: 0x8, addend: 0x0, symName: __RNCNvXNtNtCslNfmTnNkGed_4core3str4iterNtB4_5CharsNtNtNtNtB8_4iter6traits8iterator8Iterator10advance_by0Cs7HIRxJtMddX_4look, symObjAddr: 0x96C, symBinAddr: 0x10000190C, symSize: 0x1C }
  - { offset: 0x3075, size: 0x8, addend: 0x0, symName: __RNvXNtNtCslNfmTnNkGed_4core3str4iterNtB2_5CharsNtNtNtNtB6_4iter6traits8iterator8Iterator10advance_byCs7HIRxJtMddX_4look, symObjAddr: 0x1DFC, symBinAddr: 0x100002D98, symSize: 0x574 }
  - { offset: 0x3647, size: 0x8, addend: 0x0, symName: __RNvXNtNtCslNfmTnNkGed_4core3str4iterNtB2_5CharsNtNtNtNtB6_4iter6traits8iterator8Iterator4nextCs7HIRxJtMddX_4look, symObjAddr: 0x2370, symBinAddr: 0x10000330C, symSize: 0x70 }
  - { offset: 0x3715, size: 0x8, addend: 0x0, symName: __RNvXs3_NtNtCslNfmTnNkGed_4core3str4iterNtB5_11CharIndicesNtNtNtNtB9_4iter6traits8iterator8Iterator4nextCs7HIRxJtMddX_4look, symObjAddr: 0x2810, symBinAddr: 0x1000037AC, symSize: 0x130 }
  - { offset: 0x394E, size: 0x8, addend: 0x0, symName: __RNvXs4_NtNtCslNfmTnNkGed_4core3str4iterNtB5_11CharIndicesNtNtNtNtB9_4iter6traits12double_ended19DoubleEndedIterator9next_backCs7HIRxJtMddX_4look, symObjAddr: 0x29FC, symBinAddr: 0x100003998, symSize: 0x144 }
  - { offset: 0x3AEB, size: 0x8, addend: 0x0, symName: __RNvXs3_NtNtCslNfmTnNkGed_4core3str7patternNCNvMB7_e4trim0NtB5_11MultiCharEq7matchesCs7HIRxJtMddX_4look, symObjAddr: 0x2940, symBinAddr: 0x1000038DC, symSize: 0x28 }
  - { offset: 0x3B37, size: 0x8, addend: 0x0, symName: __RNvXsr_NtNtCslNfmTnNkGed_4core3str7patternNCNvMB7_e4trim0NtB5_7Pattern13into_searcherCs7HIRxJtMddX_4look, symObjAddr: 0x2F0C, symBinAddr: 0x100003EA8, symSize: 0x48 }
  - { offset: 0x489B, size: 0x8, addend: 0x0, symName: __RNvNvNtCslNfmTnNkGed_4core10intrinsics19copy_nonoverlapping18precondition_checkCs7HIRxJtMddX_4look, symObjAddr: 0x1A9C, symBinAddr: 0x100002A38, symSize: 0x2C8 }
  - { offset: 0x4C5D, size: 0x8, addend: 0x0, symName: __RNvMNtCslNfmTnNkGed_4core5sliceSNtNtCsdEVMfzfmdlp_5alloc6string6String4lastCs7HIRxJtMddX_4look, symObjAddr: 0xD00, symBinAddr: 0x100001CA0, symSize: 0x58 }
  - { offset: 0x4FAE, size: 0x8, addend: 0x0, symName: __RNvXs2U_NtNtCslNfmTnNkGed_4core5slice4iterINtB6_4IterAhj20_ENtNtNtNtBa_4iter6traits8iterator8Iterator4nextCs7HIRxJtMddX_4look, symObjAddr: 0x2494, symBinAddr: 0x100003430, symSize: 0xC4 }
  - { offset: 0x50FD, size: 0x8, addend: 0x0, symName: __RNvXs2U_NtNtCslNfmTnNkGed_4core5slice4iterINtB6_4IterhENtNtNtNtBa_4iter6traits8iterator8Iterator10advance_byCs7HIRxJtMddX_4look, symObjAddr: 0x2558, symBinAddr: 0x1000034F4, symSize: 0xB8 }
  - { offset: 0x5258, size: 0x8, addend: 0x0, symName: __RNvXs2U_NtNtCslNfmTnNkGed_4core5slice4iterINtB6_4IterhENtNtNtNtBa_4iter6traits8iterator8Iterator4nextCs7HIRxJtMddX_4look, symObjAddr: 0x2610, symBinAddr: 0x1000035AC, symSize: 0xC4 }
  - { offset: 0x53AD, size: 0x8, addend: 0x0, symName: __RNvXs2V_NtNtCslNfmTnNkGed_4core5slice4iterINtB6_4IterhENtNtNtNtBa_4iter6traits12double_ended19DoubleEndedIterator9next_backCs7HIRxJtMddX_4look, symObjAddr: 0x26D4, symBinAddr: 0x100003670, symSize: 0x108 }
  - { offset: 0x56D8, size: 0x8, addend: 0x0, symName: __RNvNvNtNtCslNfmTnNkGed_4core4char7convert18from_u32_unchecked18precondition_checkCs7HIRxJtMddX_4look, symObjAddr: 0x1D64, symBinAddr: 0x100002D00, symSize: 0x98 }
  - { offset: 0x58DD, size: 0x8, addend: 0x0, symName: __RNvXNtNtNtCslNfmTnNkGed_4core4iter6traits7collectINtNtNtB6_8adapters4skip4SkipNtNtNtB8_3str4iter5CharsENtB2_12IntoIterator9into_iterCs7HIRxJtMddX_4look, symObjAddr: 0x23E0, symBinAddr: 0x10000337C, symSize: 0x18 }
  - { offset: 0x5914, size: 0x8, addend: 0x0, symName: __RNvXNtNtNtCslNfmTnNkGed_4core4iter6traits7collectINtNtNtB8_3ops5range5RangejENtB2_12IntoIterator9into_iterCs7HIRxJtMddX_4look, symObjAddr: 0x23F8, symBinAddr: 0x100003394, symSize: 0x14 }
  - { offset: 0x59C7, size: 0x8, addend: 0x0, symName: __RNvYNtNtNtCslNfmTnNkGed_4core3str4iter5CharsNtNtNtNtB8_4iter6traits8iterator8Iterator3nthCs7HIRxJtMddX_4look, symObjAddr: 0x30E0, symBinAddr: 0x10000407C, symSize: 0x84 }
  - { offset: 0x5A92, size: 0x8, addend: 0x0, symName: __RNvYNtNtNtCslNfmTnNkGed_4core3str4iter5CharsNtNtNtNtB8_4iter6traits8iterator8Iterator4skipCs7HIRxJtMddX_4look, symObjAddr: 0x3164, symBinAddr: 0x100004100, symSize: 0x2C }
  - { offset: 0x5B9E, size: 0x8, addend: 0x0, symName: __RNvXs_NtNtNtCslNfmTnNkGed_4core4iter8adapters4skipINtB4_4SkipNtNtNtBa_3str4iter5CharsENtNtNtB8_6traits8iterator8Iterator4nextCs7HIRxJtMddX_4look, symObjAddr: 0x2C14, symBinAddr: 0x100003BB0, symSize: 0x78 }
  - { offset: 0x5CEF, size: 0x8, addend: 0x0, symName: __RNvXs3_NtNtCslNfmTnNkGed_4core4iter5rangeINtNtNtB9_3ops5range5RangejENtB5_17RangeIteratorImpl9spec_nextCs7HIRxJtMddX_4look, symObjAddr: 0x2968, symBinAddr: 0x100003904, symSize: 0x94 }
  - { offset: 0x5D97, size: 0x8, addend: 0x0, symName: __RNvXs4_NtNtCslNfmTnNkGed_4core4iter5rangeINtNtNtB9_3ops5range5RangejENtNtNtB7_6traits8iterator8Iterator4nextCs7HIRxJtMddX_4look, symObjAddr: 0x2B40, symBinAddr: 0x100003ADC, symSize: 0x24 }
  - { offset: 0x6069, size: 0x8, addend: 0x0, symName: __RNCNvXs1_NtNtNtCseBpLqYIfw0F_3std2io5error14repr_bitpackedNtB7_4ReprNtNtNtCslNfmTnNkGed_4core3ops4drop4Drop4drop0Cs7HIRxJtMddX_4look, symObjAddr: 0x988, symBinAddr: 0x100001928, symSize: 0x34 }
  - { offset: 0x611E, size: 0x8, addend: 0x0, symName: __RNvXs1_NtNtNtCseBpLqYIfw0F_3std2io5error14repr_bitpackedNtB5_4ReprNtNtNtCslNfmTnNkGed_4core3ops4drop4Drop4dropCs7HIRxJtMddX_4look, symObjAddr: 0x245C, symBinAddr: 0x1000033F8, symSize: 0x38 }
  - { offset: 0x6147, size: 0x8, addend: 0x0, symName: __RINvNtNtNtCseBpLqYIfw0F_3std2io5error14repr_bitpacked11decode_reprINtNtCsdEVMfzfmdlp_5alloc5boxed3BoxNtB4_6CustomENCNvXs1_B2_NtB2_4ReprNtNtNtCslNfmTnNkGed_4core3ops4drop4Drop4drop0ECs7HIRxJtMddX_4look, symObjAddr: 0x608, symBinAddr: 0x1000015A8, symSize: 0x1F8 }
  - { offset: 0x63E7, size: 0x8, addend: 0x0, symName: __RNvNtNtNtCseBpLqYIfw0F_3std2io5error14repr_bitpacked14kind_from_primCs7HIRxJtMddX_4look, symObjAddr: 0x1404, symBinAddr: 0x1000023A0, symSize: 0x608 }
  - { offset: 0x6CD1, size: 0x8, addend: 0x0, symName: __RNvXsT_NtCseBpLqYIfw0F_3std7processuNtB5_11Termination6reportCs7HIRxJtMddX_4look, symObjAddr: 0x2B64, symBinAddr: 0x100003B00, symSize: 0x10 }
  - { offset: 0x6DCF, size: 0x8, addend: 0x0, symName: __RINvMNtCslNfmTnNkGed_4core6optionINtB3_6OptionINtNtNtB5_3num7nonzero7NonZerojEE6map_orINtNtB5_6result6ResultuBI_ENcNtB1m_3Err0ECs7HIRxJtMddX_4look, symObjAddr: 0x138, symBinAddr: 0x1000010F0, symSize: 0x78 }
  - { offset: 0x7224, size: 0x8, addend: 0x0, symName: __RNvMNtCsdEVMfzfmdlp_5alloc6stringNtB2_6String3newCs7HIRxJtMddX_4look, symObjAddr: 0x9BC, symBinAddr: 0x10000195C, symSize: 0x30 }
  - { offset: 0x73E5, size: 0x8, addend: 0x0, symName: __RNvMNtCsdEVMfzfmdlp_5alloc6stringNtB2_6String4pushCs7HIRxJtMddX_4look, symObjAddr: 0x9EC, symBinAddr: 0x10000198C, symSize: 0x184 }
  - { offset: 0x779E, size: 0x8, addend: 0x0, symName: __RNvMNtCsdEVMfzfmdlp_5alloc6stringNtB2_6String6as_strCs7HIRxJtMddX_4look, symObjAddr: 0xB70, symBinAddr: 0x100001B10, symSize: 0x70 }
  - { offset: 0x7994, size: 0x8, addend: 0x0, symName: __RNvMNtCsdEVMfzfmdlp_5alloc6stringNtB2_6String8push_strCs7HIRxJtMddX_4look, symObjAddr: 0xBE0, symBinAddr: 0x100001B80, symSize: 0xD8 }
  - { offset: 0x7CBD, size: 0x8, addend: 0x0, symName: __RNvMs3_NtCsdEVMfzfmdlp_5alloc7raw_vecNtB5_11RawVecInner16with_capacity_inCs7HIRxJtMddX_4look, symObjAddr: 0xD58, symBinAddr: 0x100001CF8, symSize: 0x108 }
  - { offset: 0x873B, size: 0x8, addend: 0x0, symName: __RINvMNtCslNfmTnNkGed_4core5sliceSh12array_chunksKj20_ECs7HIRxJtMddX_4look, symObjAddr: 0x0, symBinAddr: 0x10000412C, symSize: 0xDC }
  - { offset: 0x8785, size: 0x8, addend: 0x0, symName: __RNCINvNtCseBpLqYIfw0F_3std2rt10lang_startuE0Cs7HIRxJtMddX_4look, symObjAddr: 0x8C4, symBinAddr: 0x100004968, symSize: 0x34 }
  - { offset: 0x87EF, size: 0x8, addend: 0x0, symName: __RINvNtCseBpLqYIfw0F_3std2rt10lang_startuECs7HIRxJtMddX_4look, symObjAddr: 0x320, symBinAddr: 0x10000444C, symSize: 0x6C }
  - { offset: 0x8AB1, size: 0x8, addend: 0x0, symName: __RINvNtNtCseBpLqYIfw0F_3std3sys9backtrace28___rust_begin_short_backtraceFEuuECs7HIRxJtMddX_4look, symObjAddr: 0x744, symBinAddr: 0x1000047E8, symSize: 0x24 }
  - { offset: 0x8BFC, size: 0x8, addend: 0x0, symName: __RNvXsb_NtNtCslNfmTnNkGed_4core3num5errorNtB5_13ParseIntErrorNtNtB9_3fmt5Debug3fmtCs7HIRxJtMddX_4look, symObjAddr: 0x23C0, symBinAddr: 0x10000645C, symSize: 0x64 }
  - { offset: 0x8C3C, size: 0x8, addend: 0x0, symName: __RNvXsg_NtNtCslNfmTnNkGed_4core3num5errorNtB5_12IntErrorKindNtNtB9_3fmt5Debug3fmtCs7HIRxJtMddX_4look, symObjAddr: 0x2424, symBinAddr: 0x1000064C0, symSize: 0xF4 }
  - { offset: 0x8FEE, size: 0x8, addend: 0x0, symName: __RNvNvMs1_NtNtCslNfmTnNkGed_4core3ptr8non_nullINtB7_7NonNullpE13new_unchecked18precondition_checkCs7HIRxJtMddX_4look, symObjAddr: 0x16EC, symBinAddr: 0x100005790, symSize: 0x38 }
  - { offset: 0x954A, size: 0x8, addend: 0x0, symName: __RNvNvMNtNtCslNfmTnNkGed_4core3ptr9const_ptrPp7sub_ptr18precondition_checkCs7HIRxJtMddX_4look, symObjAddr: 0x166C, symBinAddr: 0x100005710, symSize: 0x40 }
  - { offset: 0x97A3, size: 0x8, addend: 0x0, symName: __RINvNtCslNfmTnNkGed_4core3ptr13drop_in_placeINtNtCsdEVMfzfmdlp_5alloc3vec3VecNtNtBL_6string6StringEECs7HIRxJtMddX_4look, symObjAddr: 0x468, symBinAddr: 0x10000454C, symSize: 0x30 }
  - { offset: 0x97D2, size: 0x8, addend: 0x0, symName: __RINvNtCslNfmTnNkGed_4core3ptr13drop_in_placeINtNtCsdEVMfzfmdlp_5alloc3vec3VechEECs7HIRxJtMddX_4look, symObjAddr: 0x498, symBinAddr: 0x10000457C, symSize: 0x30 }
  - { offset: 0x9801, size: 0x8, addend: 0x0, symName: __RINvNtCslNfmTnNkGed_4core3ptr13drop_in_placeINtNtCsdEVMfzfmdlp_5alloc5boxed3BoxDNtNtB4_5error5ErrorNtNtB4_6marker4SendNtB1B_4SyncEL_EECs7HIRxJtMddX_4look, symObjAddr: 0x4C8, symBinAddr: 0x1000045AC, symSize: 0x58 }
  - { offset: 0x9830, size: 0x8, addend: 0x0, symName: __RINvNtCslNfmTnNkGed_4core3ptr13drop_in_placeINtNtCsdEVMfzfmdlp_5alloc5boxed3BoxNtNtNtCseBpLqYIfw0F_3std2io5error6CustomEECs7HIRxJtMddX_4look, symObjAddr: 0x520, symBinAddr: 0x100004604, symSize: 0x34 }
  - { offset: 0x985F, size: 0x8, addend: 0x0, symName: __RINvNtCslNfmTnNkGed_4core3ptr13drop_in_placeINtNtCsdEVMfzfmdlp_5alloc7raw_vec6RawVecNtNtBL_6string6StringEECs7HIRxJtMddX_4look, symObjAddr: 0x554, symBinAddr: 0x100004638, symSize: 0x24 }
  - { offset: 0x988E, size: 0x8, addend: 0x0, symName: __RINvNtCslNfmTnNkGed_4core3ptr13drop_in_placeINtNtCsdEVMfzfmdlp_5alloc7raw_vec6RawVechEECs7HIRxJtMddX_4look, symObjAddr: 0x578, symBinAddr: 0x10000465C, symSize: 0x24 }
  - { offset: 0x98BD, size: 0x8, addend: 0x0, symName: __RINvNtCslNfmTnNkGed_4core3ptr13drop_in_placeINtNtNtB4_5array4iter8IntoIterbKj20_EECs7HIRxJtMddX_4look, symObjAddr: 0x59C, symBinAddr: 0x100004680, symSize: 0x24 }
  - { offset: 0x98EC, size: 0x8, addend: 0x0, symName: __RINvNtCslNfmTnNkGed_4core3ptr13drop_in_placeINtNtNtCseBpLqYIfw0F_3std2io5error9ErrorDataINtNtCsdEVMfzfmdlp_5alloc5boxed3BoxNtBJ_6CustomEEECs7HIRxJtMddX_4look, symObjAddr: 0x5C0, symBinAddr: 0x1000046A4, symSize: 0x48 }
  - { offset: 0x991B, size: 0x8, addend: 0x0, symName: __RINvNtCslNfmTnNkGed_4core3ptr13drop_in_placeNtNtCsdEVMfzfmdlp_5alloc6string6StringECs7HIRxJtMddX_4look, symObjAddr: 0x628, symBinAddr: 0x1000046EC, symSize: 0x24 }
  - { offset: 0x994A, size: 0x8, addend: 0x0, symName: __RINvNtCslNfmTnNkGed_4core3ptr13drop_in_placeNtNtNtCseBpLqYIfw0F_3std2io5error5ErrorECs7HIRxJtMddX_4look, symObjAddr: 0x65C, symBinAddr: 0x100004710, symSize: 0x24 }
  - { offset: 0x9979, size: 0x8, addend: 0x0, symName: __RINvNtCslNfmTnNkGed_4core3ptr13drop_in_placeNtNtNtCseBpLqYIfw0F_3std2io5error6CustomECs7HIRxJtMddX_4look, symObjAddr: 0x680, symBinAddr: 0x100004734, symSize: 0x24 }
  - { offset: 0x99A8, size: 0x8, addend: 0x0, symName: __RINvNtCslNfmTnNkGed_4core3ptr13drop_in_placeNtNtNtNtCseBpLqYIfw0F_3std2io5error14repr_bitpacked4ReprECs7HIRxJtMddX_4look, symObjAddr: 0x6A4, symBinAddr: 0x100004758, symSize: 0x24 }
  - { offset: 0x99D7, size: 0x8, addend: 0x0, symName: __RINvNtCslNfmTnNkGed_4core3ptr13drop_in_placeSNtNtCsdEVMfzfmdlp_5alloc6string6StringECs7HIRxJtMddX_4look, symObjAddr: 0x6D8, symBinAddr: 0x10000477C, symSize: 0x6C }
  - { offset: 0x9E32, size: 0x8, addend: 0x0, symName: __RNvXs1a_NtCslNfmTnNkGed_4core3fmtRNtNtNtB8_3num5error12IntErrorKindNtB6_5Debug3fmtCs7HIRxJtMddX_4look, symObjAddr: 0x1C4C, symBinAddr: 0x100005CE8, symSize: 0x30 }
  - { offset: 0x9E7E, size: 0x8, addend: 0x0, symName: __RNvXsH_NtCslNfmTnNkGed_4core3fmtNtB5_5ErrorNtB5_5Debug3fmtCs7HIRxJtMddX_4look, symObjAddr: 0x2190, symBinAddr: 0x10000622C, symSize: 0x40 }
  - { offset: 0x9EDD, size: 0x8, addend: 0x0, symName: __RINvNtCslNfmTnNkGed_4core3cmp6min_byjNvYjNtB2_3Ord3cmpECs7HIRxJtMddX_4look, symObjAddr: 0x38C, symBinAddr: 0x1000044B8, symSize: 0x94 }
  - { offset: 0xA2F4, size: 0x8, addend: 0x0, symName: __RNcNtINtNtCslNfmTnNkGed_4core6result6ResultuINtNtNtB8_3num7nonzero7NonZerojEE3Err0Cs7HIRxJtMddX_4look, symObjAddr: 0xA40, symBinAddr: 0x100004AE4, symSize: 0x18 }
  - { offset: 0xA78D, size: 0x8, addend: 0x0, symName: __RINvMNtCslNfmTnNkGed_4core5sliceSh12array_chunksKj20_ECs7HIRxJtMddX_4look, symObjAddr: 0x0, symBinAddr: 0x10000412C, symSize: 0xDC }
  - { offset: 0xA967, size: 0x8, addend: 0x0, symName: __RINvMNtCslNfmTnNkGed_4core5sliceSh19as_chunks_uncheckedKj20_ECs7HIRxJtMddX_4look, symObjAddr: 0xDC, symBinAddr: 0x100004208, symSize: 0xA0 }
  - { offset: 0xAA61, size: 0x8, addend: 0x0, symName: __RINvMNtCslNfmTnNkGed_4core5sliceSh9as_chunksKj20_ECs7HIRxJtMddX_4look, symObjAddr: 0x17C, symBinAddr: 0x1000042A8, symSize: 0xB0 }
  - { offset: 0xAB84, size: 0x8, addend: 0x0, symName: __RNvMNtCslNfmTnNkGed_4core5sliceSh18split_at_uncheckedCs7HIRxJtMddX_4look, symObjAddr: 0xA6C, symBinAddr: 0x100004B10, symSize: 0xDC }
  - { offset: 0xAD45, size: 0x8, addend: 0x0, symName: __RNvNvMNtCslNfmTnNkGed_4core5sliceSp18split_at_unchecked18precondition_checkCs7HIRxJtMddX_4look, symObjAddr: 0x15B0, symBinAddr: 0x100005654, symSize: 0x40 }
  - { offset: 0xAD81, size: 0x8, addend: 0x0, symName: __RNvNvMNtCslNfmTnNkGed_4core5sliceSp19as_chunks_unchecked18precondition_checkCs7HIRxJtMddX_4look, symObjAddr: 0x15F0, symBinAddr: 0x100005694, symSize: 0x7C }
  - { offset: 0xAE83, size: 0x8, addend: 0x0, symName: __RNvNvNtNtCslNfmTnNkGed_4core5slice3raw14from_raw_parts18precondition_checkCs7HIRxJtMddX_4look, symObjAddr: 0x1850, symBinAddr: 0x1000058F4, symSize: 0x158 }
  - { offset: 0xAFC9, size: 0x8, addend: 0x0, symName: __RNvNvNtNtCslNfmTnNkGed_4core5slice3raw18from_raw_parts_mut18precondition_checkCs7HIRxJtMddX_4look, symObjAddr: 0x19A8, symBinAddr: 0x100005A4C, symSize: 0x158 }
  - { offset: 0xB17A, size: 0x8, addend: 0x0, symName: __RNvNvXs0_NtNtCslNfmTnNkGed_4core5slice5indexjINtB7_10SliceIndexSpE13get_unchecked18precondition_checkCs7HIRxJtMddX_4look, symObjAddr: 0x1B00, symBinAddr: 0x100005BA4, symSize: 0x40 }
  - { offset: 0xB1B1, size: 0x8, addend: 0x0, symName: __RNvXs0_NtNtCslNfmTnNkGed_4core5slice5indexjINtB5_10SliceIndexSNtNtCsdEVMfzfmdlp_5alloc6string6StringE5indexCs7HIRxJtMddX_4look, symObjAddr: 0x1BE8, symBinAddr: 0x100005C84, symSize: 0x64 }
  - { offset: 0xB265, size: 0x8, addend: 0x0, symName: __RNvNvXs1_NtNtCslNfmTnNkGed_4core5slice5indexNtNtNtBb_3ops11index_range10IndexRangeINtB7_10SliceIndexSpE17get_unchecked_mut18precondition_checkCs7HIRxJtMddX_4look, symObjAddr: 0x1B40, symBinAddr: 0x100005BE4, symSize: 0x40 }
  - { offset: 0xB360, size: 0x8, addend: 0x0, symName: __RNvNvNtCslNfmTnNkGed_4core4hint16assert_unchecked18precondition_checkCs7HIRxJtMddX_4look, symObjAddr: 0x1724, symBinAddr: 0x1000057C8, symSize: 0x38 }
  - { offset: 0xB38E, size: 0x8, addend: 0x0, symName: __RNvNvNtCslNfmTnNkGed_4core4hint21unreachable_unchecked18precondition_checkCs7HIRxJtMddX_4look, symObjAddr: 0x175C, symBinAddr: 0x100005800, symSize: 0x1C }
  - { offset: 0xB452, size: 0x8, addend: 0x0, symName: __RNCINvNtNtNtCslNfmTnNkGed_4core4iter8adapters3map8map_foldbhhNCNvXNtNtBa_3str4iterNtB12_5CharsNtNtNtB8_6traits8iterator8Iterator10advance_by0NCINvXsq_NtB1y_5accumhNtB2o_3Sum3sumINtB4_3MapINtNtNtBa_5array4iter8IntoIterbKj20_EBX_EE0E0Cs7HIRxJtMddX_4look, symObjAddr: 0x8F8, symBinAddr: 0x10000499C, symSize: 0x6C }
  - { offset: 0xB558, size: 0x8, addend: 0x0, symName: __RNCINvXsq_NtNtNtCslNfmTnNkGed_4core4iter6traits5accumhNtB8_3Sum3sumINtNtNtBc_8adapters3map3MapINtNtNtBe_5array4iter8IntoIterbKj20_ENCNvXNtNtBe_3str4iterNtB2a_5CharsNtNtBa_8iterator8Iterator10advance_by0EE0Cs7HIRxJtMddX_4look, symObjAddr: 0x9F8, symBinAddr: 0x100004A9C, symSize: 0x20 }
  - { offset: 0xB5B2, size: 0x8, addend: 0x0, symName: __RINvYNtNtNtCslNfmTnNkGed_4core3ops11index_range10IndexRangeNtNtNtNtB9_4iter6traits8iterator8Iterator8try_foldhNCINvMNtB7_9try_traitINtB1Q_17NeverShortCircuithE10wrap_mut_2hjNCINvXs0_NtNtB9_5array4iterINtB2U_8IntoIterbKj20_EBV_4foldhNCINvNtNtB11_8adapters3map8map_foldbhhNCNvXNtNtB9_3str4iterNtB4p_5CharsBV_10advance_by0NCINvXsq_NtBZ_5accumhNtB5g_3Sum3sumINtB3N_3MapB3c_B4k_EE0E0E0E0B25_ECs7HIRxJtMddX_4look, symObjAddr: 0x7CC, symBinAddr: 0x100004870, symSize: 0xCC }
  - { offset: 0xB68B, size: 0x8, addend: 0x0, symName: __RNvXsF_NtNtCslNfmTnNkGed_4core4iter5rangejNtB5_4Step17forward_uncheckedCs7HIRxJtMddX_4look, symObjAddr: 0x2148, symBinAddr: 0x1000061E4, symSize: 0x48 }
  - { offset: 0xB78B, size: 0x8, addend: 0x0, symName: __RNvXs_NtNtCslNfmTnNkGed_4core3ops11index_rangeNtB4_10IndexRangeNtNtNtNtB8_4iter6traits8iterator8Iterator4nextCs7HIRxJtMddX_4look, symObjAddr: 0x2258, symBinAddr: 0x1000062F4, symSize: 0xBC }
  - { offset: 0xB85F, size: 0x8, addend: 0x0, symName: __RNCINvMNtNtCslNfmTnNkGed_4core3ops9try_traitINtB5_17NeverShortCircuithE10wrap_mut_2hjNCINvXs0_NtNtB9_5array4iterINtB1u_8IntoIterbKj20_ENtNtNtNtB9_4iter6traits8iterator8Iterator4foldhNCINvNtNtB2f_8adapters3map8map_foldbhhNCNvXNtNtB9_3str4iterNtB3B_5CharsB29_10advance_by0NCINvXsq_NtB2d_5accumhNtB4t_3Sum3sumINtB2Z_3MapB1M_B3w_EE0E0E0E0Cs7HIRxJtMddX_4look, symObjAddr: 0x898, symBinAddr: 0x10000493C, symSize: 0x2C }
  - { offset: 0xB8EB, size: 0x8, addend: 0x0, symName: __RNvXs_NtNtCslNfmTnNkGed_4core3ops9try_traitINtB4_17NeverShortCircuithENtB4_3Try11from_outputCs7HIRxJtMddX_4look, symObjAddr: 0x2314, symBinAddr: 0x1000063B0, symSize: 0x10 }
  - { offset: 0xB922, size: 0x8, addend: 0x0, symName: __RNvXs_NtNtCslNfmTnNkGed_4core3ops9try_traitINtB4_17NeverShortCircuithENtB4_3Try6branchCs7HIRxJtMddX_4look, symObjAddr: 0x2324, symBinAddr: 0x1000063C0, symSize: 0x18 }
  - { offset: 0xB98D, size: 0x8, addend: 0x0, symName: __RNSNvYNCINvNtCseBpLqYIfw0F_3std2rt10lang_startuE0INtNtNtCslNfmTnNkGed_4core3ops8function6FnOnceuE9call_once6vtableCs7HIRxJtMddX_4look, symObjAddr: 0xA18, symBinAddr: 0x100004ABC, symSize: 0x28 }
  - { offset: 0xB9D1, size: 0x8, addend: 0x0, symName: __RNvYFEuINtNtNtCslNfmTnNkGed_4core3ops8function6FnOnceuE9call_onceCs7HIRxJtMddX_4look, symObjAddr: 0x2598, symBinAddr: 0x100006634, symSize: 0x20 }
  - { offset: 0xBA11, size: 0x8, addend: 0x0, symName: __RNvYNCINvNtCseBpLqYIfw0F_3std2rt10lang_startuE0INtNtNtCslNfmTnNkGed_4core3ops8function6FnOnceuE9call_onceCs7HIRxJtMddX_4look, symObjAddr: 0x26D8, symBinAddr: 0x100006774, symSize: 0x28 }
  - { offset: 0xBA55, size: 0x8, addend: 0x0, symName: __RNvYNcNtINtNtCslNfmTnNkGed_4core6result6ResultuINtNtNtBb_3num7nonzero7NonZerojEE3Err0INtNtNtBb_3ops8function6FnOnceTBJ_EE9call_onceCs7HIRxJtMddX_4look, symObjAddr: 0x2700, symBinAddr: 0x10000679C, symSize: 0x24 }
  - { offset: 0xBA99, size: 0x8, addend: 0x0, symName: __RNvYNvYjNtNtCslNfmTnNkGed_4core3cmp3Ord3cmpINtNtNtBa_3ops8function6FnOnceTRjB1a_EE9call_onceCs7HIRxJtMddX_4look, symObjAddr: 0x2724, symBinAddr: 0x1000067C0, symSize: 0x2C }
  - { offset: 0xBBBB, size: 0x8, addend: 0x0, symName: __RNCINvXs0_NtNtCslNfmTnNkGed_4core5array4iterINtB8_8IntoIterbKj20_ENtNtNtNtBc_4iter6traits8iterator8Iterator4foldhNCINvNtNtB18_8adapters3map8map_foldbhhNCNvXNtNtBc_3str4iterNtB2u_5CharsB12_10advance_by0NCINvXsq_NtB16_5accumhNtB3m_3Sum3sumINtB1S_3MapBG_B2p_EE0E0E0Cs7HIRxJtMddX_4look, symObjAddr: 0x964, symBinAddr: 0x100004A08, symSize: 0x94 }
  - { offset: 0xBD22, size: 0x8, addend: 0x0, symName: __RINvXs0_NtNtCslNfmTnNkGed_4core5array4iterINtB6_8IntoIterbKj20_ENtNtNtNtBa_4iter6traits8iterator8Iterator4foldhNCINvNtNtB16_8adapters3map8map_foldbhhNCNvXNtNtBa_3str4iterNtB2s_5CharsB10_10advance_by0NCINvXsq_NtB14_5accumhNtB3k_3Sum3sumINtB1Q_3MapBE_B2n_EE0E0ECs7HIRxJtMddX_4look, symObjAddr: 0x768, symBinAddr: 0x10000480C, symSize: 0x64 }
  - { offset: 0xBE24, size: 0x8, addend: 0x0, symName: __RNvXs2_NtNtCslNfmTnNkGed_4core5array4iterINtB5_8IntoIterbKj20_ENtNtNtB9_3ops4drop4Drop4dropCs7HIRxJtMddX_4look, symObjAddr: 0x1C7C, symBinAddr: 0x100005D18, symSize: 0x24 }
  - { offset: 0xBEBD, size: 0x8, addend: 0x0, symName: __RNvNvXs5_NtNtCslNfmTnNkGed_4core3str6traitsINtNtNtBb_3ops5range5RangejEINtNtNtBb_5slice5index10SliceIndexeE13get_unchecked18precondition_checkCs7HIRxJtMddX_4look, symObjAddr: 0x1B80, symBinAddr: 0x100005C24, symSize: 0x60 }
  - { offset: 0xBF3F, size: 0x8, addend: 0x0, symName: __RNvXs7_NtNtCslNfmTnNkGed_4core3str7patternINtB5_18MultiCharEqPatternNCNvMB7_e4trim0ENtB5_7Pattern13into_searcherCs7HIRxJtMddX_4look, symObjAddr: 0x1E38, symBinAddr: 0x100005ED4, symSize: 0x78 }
  - { offset: 0xBFA9, size: 0x8, addend: 0x0, symName: __RNvXs8_NtNtCslNfmTnNkGed_4core3str7patternINtB5_19MultiCharEqSearcherNCNvMB7_e4trim0ENtB5_8Searcher4nextCs7HIRxJtMddX_4look, symObjAddr: 0x1EB0, symBinAddr: 0x100005F4C, symSize: 0x14C }
  - { offset: 0xC0CF, size: 0x8, addend: 0x0, symName: __RNvXs9_NtNtCslNfmTnNkGed_4core3str7patternINtB5_19MultiCharEqSearcherNCNvMB7_e4trim0ENtB5_15ReverseSearcher9next_backCs7HIRxJtMddX_4look, symObjAddr: 0x1FFC, symBinAddr: 0x100006098, symSize: 0x14C }
  - { offset: 0xC1F5, size: 0x8, addend: 0x0, symName: __RNvXso_NtNtCslNfmTnNkGed_4core3str7patternINtB5_21CharPredicateSearcherNCNvMB7_e4trim0ENtB5_8Searcher11next_rejectCs7HIRxJtMddX_4look, symObjAddr: 0x2550, symBinAddr: 0x1000065EC, symSize: 0x24 }
  - { offset: 0xC232, size: 0x8, addend: 0x0, symName: __RNvXsp_NtNtCslNfmTnNkGed_4core3str7patternINtB5_21CharPredicateSearcherNCNvMB7_e4trim0ENtB5_15ReverseSearcher16next_reject_backCs7HIRxJtMddX_4look, symObjAddr: 0x2574, symBinAddr: 0x100006610, symSize: 0x24 }
  - { offset: 0xC26F, size: 0x8, addend: 0x0, symName: __RNvYINtNtNtCslNfmTnNkGed_4core3str7pattern19MultiCharEqSearcherNCNvMB7_e4trim0ENtB5_15ReverseSearcher16next_reject_backCs7HIRxJtMddX_4look, symObjAddr: 0x25B8, symBinAddr: 0x100006654, symSize: 0x90 }
  - { offset: 0xC2DA, size: 0x8, addend: 0x0, symName: __RNvYINtNtNtCslNfmTnNkGed_4core3str7pattern19MultiCharEqSearcherNCNvMB7_e4trim0ENtB5_8Searcher11next_rejectCs7HIRxJtMddX_4look, symObjAddr: 0x2648, symBinAddr: 0x1000066E4, symSize: 0x90 }
  - { offset: 0xC60D, size: 0x8, addend: 0x0, symName: __RNvMNtNtCslNfmTnNkGed_4core4char7methodsc8to_digitCs7HIRxJtMddX_4look, symObjAddr: 0xCE4, symBinAddr: 0x100004D88, symSize: 0x14C }
  - { offset: 0xC70C, size: 0x8, addend: 0x0, symName: __RNvNtNtCslNfmTnNkGed_4core4char7methods15encode_utf8_rawCs7HIRxJtMddX_4look, symObjAddr: 0x123C, symBinAddr: 0x1000052E0, symSize: 0x228 }
  - { offset: 0xC92C, size: 0x8, addend: 0x0, symName: __RNvNtNtNtCslNfmTnNkGed_4core7unicode12unicode_data11white_space6lookupCs7HIRxJtMddX_4look, symObjAddr: 0x1464, symBinAddr: 0x100005508, symSize: 0x14C }
  - { offset: 0xC971, size: 0x8, addend: 0x0, symName: __RNvNvMNtNtCslNfmTnNkGed_4core5alloc6layoutNtB4_6Layout25from_size_align_unchecked18precondition_checkCs7HIRxJtMddX_4look, symObjAddr: 0x16AC, symBinAddr: 0x100005750, symSize: 0x40 }
  - { offset: 0xCA56, size: 0x8, addend: 0x0, symName: __RNvNvNtCslNfmTnNkGed_4core9ub_checks23maybe_is_nonoverlapping7runtimeCs7HIRxJtMddX_4look, symObjAddr: 0x1778, symBinAddr: 0x10000581C, symSize: 0xD8 }
  - { offset: 0xD0EE, size: 0x8, addend: 0x0, symName: __RINvMs2_NtCslNfmTnNkGed_4core3fmtNtB6_9Arguments6new_v1Kj2_Kj1_ECs7HIRxJtMddX_4look, symObjAddr: 0x22C, symBinAddr: 0x100004358, symSize: 0x54 }
  - { offset: 0xD120, size: 0x8, addend: 0x0, symName: __RINvMs2_NtCslNfmTnNkGed_4core3fmtNtB6_9Arguments9new_constKj1_ECs7HIRxJtMddX_4look, symObjAddr: 0x280, symBinAddr: 0x1000043AC, symSize: 0x48 }
  - { offset: 0xD367, size: 0x8, addend: 0x0, symName: __RNvXs6_NtCsdEVMfzfmdlp_5alloc3vecINtB5_3VecNtNtB7_6string6StringENtNtNtCslNfmTnNkGed_4core3ops5deref5Deref5derefCs7HIRxJtMddX_4look, symObjAddr: 0x1CA0, symBinAddr: 0x100005D3C, symSize: 0x24 }
  - { offset: 0xD3DD, size: 0x8, addend: 0x0, symName: __RNvXsb_NtCsdEVMfzfmdlp_5alloc3vecINtB5_3VecNtNtB7_6string6StringEINtNtNtCslNfmTnNkGed_4core3ops5index5IndexjE5indexCs7HIRxJtMddX_4look, symObjAddr: 0x233C, symBinAddr: 0x1000063D8, symSize: 0x84 }
  - { offset: 0xD565, size: 0x8, addend: 0x0, symName: __RNvXsn_NtCsdEVMfzfmdlp_5alloc3vecINtB5_3VecNtNtB7_6string6StringENtNtNtCslNfmTnNkGed_4core3ops4drop4Drop4dropCs7HIRxJtMddX_4look, symObjAddr: 0x2518, symBinAddr: 0x1000065B4, symSize: 0x38 }
  - { offset: 0xD64C, size: 0x8, addend: 0x0, symName: __RNvXs_NtCsdEVMfzfmdlp_5alloc5allocNtB4_6GlobalNtNtCslNfmTnNkGed_4core5alloc9Allocator10deallocateCs7HIRxJtMddX_4look, symObjAddr: 0x21D0, symBinAddr: 0x10000626C, symSize: 0x88 }
  - { offset: 0xD94E, size: 0x8, addend: 0x0, symName: __RNvXs6_NtCsdEVMfzfmdlp_5alloc5boxedINtB5_3BoxDNtNtCslNfmTnNkGed_4core5error5ErrorNtNtBM_6marker4SendNtB1j_4SyncEL_ENtNtNtBM_3ops4drop4Drop4dropCs7HIRxJtMddX_4look, symObjAddr: 0x1CC4, symBinAddr: 0x100005D60, symSize: 0xC4 }
  - { offset: 0xDA85, size: 0x8, addend: 0x0, symName: __RNvXs6_NtCsdEVMfzfmdlp_5alloc5boxedINtB5_3BoxNtNtNtCseBpLqYIfw0F_3std2io5error6CustomENtNtNtCslNfmTnNkGed_4core3ops4drop4Drop4dropCs7HIRxJtMddX_4look, symObjAddr: 0x1D88, symBinAddr: 0x100005E24, symSize: 0xB0 }
  - { offset: 0xDBCC, size: 0x8, addend: 0x0, symName: __RINvMs_NtNtCslNfmTnNkGed_4core3fmt2rtNtB5_8Argument11new_displayNtNtCsdEVMfzfmdlp_5alloc6string6StringECs7HIRxJtMddX_4look, symObjAddr: 0x2C8, symBinAddr: 0x1000043F4, symSize: 0x2C }
  - { offset: 0xDC14, size: 0x8, addend: 0x0, symName: __RINvMs_NtNtCslNfmTnNkGed_4core3fmt2rtNtB5_8Argument3newNtNtCsdEVMfzfmdlp_5alloc6string6StringECs7HIRxJtMddX_4look, symObjAddr: 0x2F4, symBinAddr: 0x100004420, symSize: 0x2C }
  - { offset: 0xDD41, size: 0x8, addend: 0x0, symName: __RNvMNtCsdEVMfzfmdlp_5alloc3vecINtB2_3VecNtNtB4_6string6StringE3newCs7HIRxJtMddX_4look, symObjAddr: 0xA58, symBinAddr: 0x100004AFC, symSize: 0x14 }
  - { offset: 0xDD7C, size: 0x8, addend: 0x0, symName: __RNvMNtCslNfmTnNkGed_4core6resultINtB2_6ResultjNtNtNtB4_3num5error13ParseIntErrorE6expectCs7HIRxJtMddX_4look, symObjAddr: 0xB48, symBinAddr: 0x100004BEC, symSize: 0x70 }
  - { offset: 0xDDDE, size: 0x8, addend: 0x0, symName: __RNvMNtCslNfmTnNkGed_4core6resultINtB2_6ResultjNtNtNtCseBpLqYIfw0F_3std2io5error5ErrorE6expectCs7HIRxJtMddX_4look, symObjAddr: 0xBB8, symBinAddr: 0x100004C5C, symSize: 0x6C }
  - { offset: 0xDE40, size: 0x8, addend: 0x0, symName: __RNvMNtCslNfmTnNkGed_4core6resultINtB2_6ResultuNtNtB4_3fmt5ErrorE6expectCs7HIRxJtMddX_4look, symObjAddr: 0xC24, symBinAddr: 0x100004CC8, symSize: 0x58 }
  - { offset: 0xDEA1, size: 0x8, addend: 0x0, symName: __RNvMNtCslNfmTnNkGed_4core6resultINtB2_6ResultuNtNtNtCseBpLqYIfw0F_3std2io5error5ErrorE6expectCs7HIRxJtMddX_4look, symObjAddr: 0xC7C, symBinAddr: 0x100004D20, symSize: 0x68 }
  - { offset: 0xDF40, size: 0x8, addend: 0x0, symName: __RNvMs1_NtNtCslNfmTnNkGed_4core3ptr8non_nullINtB5_7NonNullhE7sub_ptrCs7HIRxJtMddX_4look, symObjAddr: 0xE30, symBinAddr: 0x100004ED4, symSize: 0x74 }
  - { offset: 0xE01D, size: 0x8, addend: 0x0, symName: __RNvMs_NtCsdEVMfzfmdlp_5alloc3vecINtB4_3VecNtNtB6_6string6StringE3lenCs7HIRxJtMddX_4look, symObjAddr: 0xEA4, symBinAddr: 0x100004F48, symSize: 0x18 }
  - { offset: 0xE160, size: 0x8, addend: 0x0, symName: __RNvMs_NtCsdEVMfzfmdlp_5alloc3vecINtB4_3VecNtNtB6_6string6StringE4pushCs7HIRxJtMddX_4look, symObjAddr: 0xEBC, symBinAddr: 0x100004F60, symSize: 0xDC }
  - { offset: 0xE38B, size: 0x8, addend: 0x0, symName: __RNvMs_NtCsdEVMfzfmdlp_5alloc3vecINtB4_3VecNtNtB6_6string6StringE8as_sliceCs7HIRxJtMddX_4look, symObjAddr: 0xF98, symBinAddr: 0x10000503C, symSize: 0x64 }
  - { offset: 0xE511, size: 0x8, addend: 0x0, symName: __RNvMs_NtCsdEVMfzfmdlp_5alloc3vecINtB4_3VechE15append_elementsCs7HIRxJtMddX_4look, symObjAddr: 0xFFC, symBinAddr: 0x1000050A0, symSize: 0xD0 }
  - { offset: 0xE734, size: 0x8, addend: 0x0, symName: __RNvMs_NtCsdEVMfzfmdlp_5alloc3vecINtB4_3VechE4pushCs7HIRxJtMddX_4look, symObjAddr: 0x10CC, symBinAddr: 0x100005170, symSize: 0xC0 }
  - { offset: 0xE962, size: 0x8, addend: 0x0, symName: __RNvMs_NtNtCslNfmTnNkGed_4core5array4iterINtB4_8IntoIterbKj20_E12as_mut_sliceCs7HIRxJtMddX_4look, symObjAddr: 0x118C, symBinAddr: 0x100005230, symSize: 0xB0 }
  - { offset: 0xEDEA, size: 0x8, addend: 0x0, symName: __RNvCs7HIRxJtMddX_4look7new_vec, symObjAddr: 0x2750, symBinAddr: 0x1000067EC, symSize: 0x14 }
  - { offset: 0xEE07, size: 0x8, addend: 0x0, symName: __RNvCs7HIRxJtMddX_4look10new_string, symObjAddr: 0x2764, symBinAddr: 0x100006800, symSize: 0x14 }
  - { offset: 0xEE24, size: 0x8, addend: 0x0, symName: __RNvCs7HIRxJtMddX_4look6loopie, symObjAddr: 0x2778, symBinAddr: 0x100006814, symSize: 0x260 }
  - { offset: 0xEF4E, size: 0x8, addend: 0x0, symName: __RNvCs7HIRxJtMddX_4look12look_and_say, symObjAddr: 0x29D8, symBinAddr: 0x100006A74, symSize: 0xAC }
  - { offset: 0xEF9D, size: 0x8, addend: 0x0, symName: __RNvCs7HIRxJtMddX_4look4main, symObjAddr: 0x2A84, symBinAddr: 0x100006B20, symSize: 0x230 }
  - { offset: 0xF73E, size: 0x8, addend: 0x0, symName: '__ZN5alloc11collections5btree3map25IntoIter$LT$K$C$V$C$A$GT$10dying_next17h26fe19700e5a54ddE', symObjAddr: 0xEEE0, symBinAddr: 0x100011EA0, symSize: 0x224 }
  - { offset: 0xFB25, size: 0x8, addend: 0x0, symName: '__ZN5alloc11collections5btree3map25IntoIter$LT$K$C$V$C$A$GT$10dying_next17hd8ef2004f4567c0bE', symObjAddr: 0xF104, symBinAddr: 0x1000120C4, symSize: 0x224 }
  - { offset: 0x108EE, size: 0x8, addend: 0x0, symName: '__ZN5alloc7raw_vec19RawVec$LT$T$C$A$GT$8grow_one17h062d05c8a30a7fb3E', symObjAddr: 0x114D4, symBinAddr: 0x1000126D4, symSize: 0xDC }
  - { offset: 0x10A85, size: 0x8, addend: 0x0, symName: '__ZN5alloc7raw_vec19RawVec$LT$T$C$A$GT$8grow_one17h0d8ea8027a10c98aE', symObjAddr: 0x115B0, symBinAddr: 0x1000127B0, symSize: 0xC8 }
  - { offset: 0x10C1C, size: 0x8, addend: 0x0, symName: '__ZN5alloc7raw_vec19RawVec$LT$T$C$A$GT$8grow_one17h0f18ad6477028d3eE', symObjAddr: 0x11678, symBinAddr: 0x100012878, symSize: 0xC8 }
  - { offset: 0x10DB3, size: 0x8, addend: 0x0, symName: '__ZN5alloc7raw_vec19RawVec$LT$T$C$A$GT$8grow_one17h10e3e28693172b47E', symObjAddr: 0x11740, symBinAddr: 0x100012940, symSize: 0xD8 }
  - { offset: 0x10F4A, size: 0x8, addend: 0x0, symName: '__ZN5alloc7raw_vec19RawVec$LT$T$C$A$GT$8grow_one17h12ac4328cec96440E', symObjAddr: 0x11818, symBinAddr: 0x100012A18, symSize: 0xD8 }
  - { offset: 0x110E1, size: 0x8, addend: 0x0, symName: '__ZN5alloc7raw_vec19RawVec$LT$T$C$A$GT$8grow_one17h1409dc94c9c3e125E', symObjAddr: 0x118F0, symBinAddr: 0x100012AF0, symSize: 0xC8 }
  - { offset: 0x11278, size: 0x8, addend: 0x0, symName: '__ZN5alloc7raw_vec19RawVec$LT$T$C$A$GT$8grow_one17h285233df94a3c6afE', symObjAddr: 0x119B8, symBinAddr: 0x100012BB8, symSize: 0xD8 }
  - { offset: 0x1140F, size: 0x8, addend: 0x0, symName: '__ZN5alloc7raw_vec19RawVec$LT$T$C$A$GT$8grow_one17h2a275e03683b7dfaE', symObjAddr: 0x11A90, symBinAddr: 0x100012C90, symSize: 0xC8 }
  - { offset: 0x115A6, size: 0x8, addend: 0x0, symName: '__ZN5alloc7raw_vec19RawVec$LT$T$C$A$GT$8grow_one17h2ecd5e2e8a69df61E', symObjAddr: 0x11B58, symBinAddr: 0x100012D58, symSize: 0xDC }
  - { offset: 0x1173D, size: 0x8, addend: 0x0, symName: '__ZN5alloc7raw_vec19RawVec$LT$T$C$A$GT$8grow_one17h76b14fa5a3f26861E', symObjAddr: 0x11D10, symBinAddr: 0x100012E34, symSize: 0xDC }
  - { offset: 0x118D4, size: 0x8, addend: 0x0, symName: '__ZN5alloc7raw_vec19RawVec$LT$T$C$A$GT$8grow_one17had57b403ec4628abE', symObjAddr: 0x11DEC, symBinAddr: 0x100012F10, symSize: 0xDC }
  - { offset: 0x11A6B, size: 0x8, addend: 0x0, symName: '__ZN5alloc7raw_vec19RawVec$LT$T$C$A$GT$8grow_one17hb2b6a25f97d1bea0E', symObjAddr: 0x11EC8, symBinAddr: 0x100012FEC, symSize: 0xC8 }
  - { offset: 0x121FF, size: 0x8, addend: 0x0, symName: __ZN5alloc7raw_vec11finish_grow17hbb7324d46fe66053E, symObjAddr: 0x1144C, symBinAddr: 0x10003B8D4, symSize: 0x88 }
  - { offset: 0x12297, size: 0x8, addend: 0x0, symName: '__ZN5alloc7raw_vec20RawVecInner$LT$A$GT$7reserve21do_reserve_and_handle17hf8beb4e1913a408eE', symObjAddr: 0x11F90, symBinAddr: 0x10003B95C, symSize: 0xF0 }
  - { offset: 0x1336E, size: 0x8, addend: 0x0, symName: '__ZN5alloc4sync16Arc$LT$T$C$A$GT$9drop_slow17h05b449ed03e6c039E', symObjAddr: 0x10EB4, symBinAddr: 0x1000122E8, symSize: 0xC0 }
  - { offset: 0x13692, size: 0x8, addend: 0x0, symName: '__ZN5alloc4sync16Arc$LT$T$C$A$GT$9drop_slow17h23fd4eee077b6ce8E', symObjAddr: 0x10F74, symBinAddr: 0x1000123A8, symSize: 0x44 }
  - { offset: 0x1376E, size: 0x8, addend: 0x0, symName: '__ZN5alloc4sync16Arc$LT$T$C$A$GT$9drop_slow17h3044fcb7f5af9d08E', symObjAddr: 0x10FB8, symBinAddr: 0x1000123EC, symSize: 0xD0 }
  - { offset: 0x1399A, size: 0x8, addend: 0x0, symName: '__ZN5alloc4sync16Arc$LT$T$C$A$GT$9drop_slow17h72552924fe7e2fafE', symObjAddr: 0x11088, symBinAddr: 0x1000124BC, symSize: 0xA0 }
  - { offset: 0x13CBD, size: 0x8, addend: 0x0, symName: '__ZN5alloc4sync16Arc$LT$T$C$A$GT$9drop_slow17haa3d3ba4cbef2992E', symObjAddr: 0x11128, symBinAddr: 0x10001255C, symSize: 0x100 }
  - { offset: 0x13FEC, size: 0x8, addend: 0x0, symName: '__ZN5alloc4sync16Arc$LT$T$C$A$GT$9drop_slow17hbb0b79bdfdf6fbc0E', symObjAddr: 0x11358, symBinAddr: 0x10001265C, symSize: 0x78 }
  - { offset: 0x147D3, size: 0x8, addend: 0x0, symName: '__ZN58_$LT$alloc..string..String$u20$as$u20$core..fmt..Debug$GT$3fmt17hd8ec3aa749687e3eE', symObjAddr: 0xD6CC, symBinAddr: 0x100011CAC, symSize: 0x1C }
  - { offset: 0x1488D, size: 0x8, addend: 0x0, symName: '__ZN58_$LT$alloc..string..String$u20$as$u20$core..fmt..Write$GT$10write_char17h0fe86e5eb7ba76d9E', symObjAddr: 0xD6E8, symBinAddr: 0x100011CC8, symSize: 0x158 }
  - { offset: 0x14AF0, size: 0x8, addend: 0x0, symName: '__ZN58_$LT$alloc..string..String$u20$as$u20$core..fmt..Write$GT$9write_str17h035d697b88ea7101E', symObjAddr: 0xD840, symBinAddr: 0x100011E20, symSize: 0x80 }
  - { offset: 0x14C48, size: 0x8, addend: 0x0, symName: '__ZN60_$LT$alloc..string..String$u20$as$u20$core..fmt..Display$GT$3fmt17hef926aa3731bfba7E', symObjAddr: 0x18D68, symBinAddr: 0x100019D9C, symSize: 0x1C }
  - { offset: 0x15F45, size: 0x8, addend: 0x0, symName: '__ZN4core3ptr104drop_in_place$LT$alloc..vec..Vec$LT$$LP$usize$C$std..backtrace_rs..symbolize..gimli..Mapping$RP$$GT$$GT$17hd8b6569a50079368E', symObjAddr: 0x1B2C, symBinAddr: 0x100007764, symSize: 0xC4 }
  - { offset: 0x1610A, size: 0x8, addend: 0x0, symName: '__ZN4core3ptr107drop_in_place$LT$core..pin..Pin$LT$alloc..boxed..Box$LT$std..sys..pal..unix..sync..mutex..Mutex$GT$$GT$$GT$17h620eb0c20a03b5e0E', symObjAddr: 0x1DBC, symBinAddr: 0x100007828, symSize: 0x2C }
  - { offset: 0x161FB, size: 0x8, addend: 0x0, symName: '__ZN4core3ptr108drop_in_place$LT$alloc..collections..btree..map..BTreeMap$LT$u64$C$gimli..read..abbrev..Abbreviation$GT$$GT$17he2d8280e0040654dE', symObjAddr: 0x1DE8, symBinAddr: 0x100007854, symSize: 0xB0 }
  - { offset: 0x163CB, size: 0x8, addend: 0x0, symName: '__ZN4core3ptr109drop_in_place$LT$alloc..sync..Arc$LT$std..sync..poison..mutex..Mutex$LT$alloc..vec..Vec$LT$u8$GT$$GT$$GT$$GT$17hcedda04aaaab2003E', symObjAddr: 0x1E98, symBinAddr: 0x100007904, symSize: 0x30 }
  - { offset: 0x1645F, size: 0x8, addend: 0x0, symName: '__ZN4core3ptr118drop_in_place$LT$std..io..Write..write_fmt..Adapter$LT$std..io..cursor..Cursor$LT$$RF$mut$u20$$u5b$u8$u5d$$GT$$GT$$GT$17h46f985595c99543cE', symObjAddr: 0x1F60, symBinAddr: 0x100007934, symSize: 0x20 }
  - { offset: 0x164BC, size: 0x8, addend: 0x0, symName: '__ZN4core3ptr123drop_in_place$LT$addr2line..Context$LT$gimli..read..endian_slice..EndianSlice$LT$gimli..endianity..LittleEndian$GT$$GT$$GT$17h1b92d03191f5b9a0E', symObjAddr: 0x1F80, symBinAddr: 0x100007954, symSize: 0x120 }
  - { offset: 0x167CF, size: 0x8, addend: 0x0, symName: '__ZN4core3ptr123drop_in_place$LT$addr2line..ResUnit$LT$gimli..read..endian_slice..EndianSlice$LT$gimli..endianity..LittleEndian$GT$$GT$$GT$17h9afe9380aae6d367E', symObjAddr: 0x20A0, symBinAddr: 0x100007A74, symSize: 0xE4 }
  - { offset: 0x169A4, size: 0x8, addend: 0x0, symName: '__ZN4core3ptr123drop_in_place$LT$addr2line..SupUnit$LT$gimli..read..endian_slice..EndianSlice$LT$gimli..endianity..LittleEndian$GT$$GT$$GT$17h1ee2e02a56bbf5a8E', symObjAddr: 0x2184, symBinAddr: 0x100007B58, symSize: 0x54 }
  - { offset: 0x16A95, size: 0x8, addend: 0x0, symName: '__ZN4core3ptr128drop_in_place$LT$core..result..Result$LT$$RF$std..thread..Thread$C$$LP$$RF$std..thread..Thread$C$std..thread..Thread$RP$$GT$$GT$17h9ad3d5d7ad1f2248E', symObjAddr: 0x2320, symBinAddr: 0x100007BAC, symSize: 0x40 }
  - { offset: 0x16B93, size: 0x8, addend: 0x0, symName: '__ZN4core3ptr130drop_in_place$LT$gimli..read..dwarf..Dwarf$LT$gimli..read..endian_slice..EndianSlice$LT$gimli..endianity..LittleEndian$GT$$GT$$GT$17h5916efe7f7cb8414E', symObjAddr: 0x2360, symBinAddr: 0x100007BEC, symSize: 0x58 }
  - { offset: 0x16C28, size: 0x8, addend: 0x0, symName: '__ZN4core3ptr137drop_in_place$LT$gimli..read..dwarf..Unit$LT$gimli..read..endian_slice..EndianSlice$LT$gimli..endianity..LittleEndian$GT$$C$usize$GT$$GT$17h8066c38f08cd5b55E', symObjAddr: 0x247C, symBinAddr: 0x100007C44, symSize: 0x54 }
  - { offset: 0x16CF6, size: 0x8, addend: 0x0, symName: '__ZN4core3ptr144drop_in_place$LT$alloc..vec..Vec$LT$core..option..Option$LT$core..option..Option$LT$std..backtrace_rs..symbolize..gimli..Mapping$GT$$GT$$GT$$GT$17h87284fe1bff38305E', symObjAddr: 0x24D0, symBinAddr: 0x100007C98, symSize: 0x10C }
  - { offset: 0x16EB8, size: 0x8, addend: 0x0, symName: '__ZN4core3ptr146drop_in_place$LT$alloc..vec..Vec$LT$addr2line..ResUnit$LT$gimli..read..endian_slice..EndianSlice$LT$gimli..endianity..LittleEndian$GT$$GT$$GT$$GT$17h98229f10fe07fec5E', symObjAddr: 0x25DC, symBinAddr: 0x100007DA4, symSize: 0xC4 }
  - { offset: 0x1703E, size: 0x8, addend: 0x0, symName: '__ZN4core3ptr146drop_in_place$LT$alloc..vec..Vec$LT$addr2line..SupUnit$LT$gimli..read..endian_slice..EndianSlice$LT$gimli..endianity..LittleEndian$GT$$GT$$GT$$GT$17hc2f45ab393875ca6E', symObjAddr: 0x26A0, symBinAddr: 0x100007E68, symSize: 0xF4 }
  - { offset: 0x17247, size: 0x8, addend: 0x0, symName: '__ZN4core3ptr158drop_in_place$LT$alloc..boxed..Box$LT$$u5b$addr2line..ResUnit$LT$gimli..read..endian_slice..EndianSlice$LT$gimli..endianity..LittleEndian$GT$$GT$$u5d$$GT$$GT$17h64ff81d9fc3da6b4E', symObjAddr: 0x2860, symBinAddr: 0x100007F5C, symSize: 0xB4 }
  - { offset: 0x1733E, size: 0x8, addend: 0x0, symName: '__ZN4core3ptr158drop_in_place$LT$alloc..boxed..Box$LT$$u5b$addr2line..SupUnit$LT$gimli..read..endian_slice..EndianSlice$LT$gimli..endianity..LittleEndian$GT$$GT$$u5d$$GT$$GT$17hab63a98d0a35b9f0E', symObjAddr: 0x2914, symBinAddr: 0x100008010, symSize: 0xE4 }
  - { offset: 0x174EC, size: 0x8, addend: 0x0, symName: '__ZN4core3ptr159drop_in_place$LT$alloc..sync..ArcInner$LT$gimli..read..dwarf..Dwarf$LT$gimli..read..endian_slice..EndianSlice$LT$gimli..endianity..LittleEndian$GT$$GT$$GT$$GT$17hd109622883dbad0bE', symObjAddr: 0x29F8, symBinAddr: 0x1000080F4, symSize: 0x58 }
  - { offset: 0x175F9, size: 0x8, addend: 0x0, symName: '__ZN4core3ptr174drop_in_place$LT$core..result..Result$LT$addr2line..FrameIter$LT$gimli..read..endian_slice..EndianSlice$LT$gimli..endianity..LittleEndian$GT$$GT$$C$gimli..read..Error$GT$$GT$17hbae528fd27f615a6E', symObjAddr: 0x2AFC, symBinAddr: 0x10000814C, symSize: 0x44 }
  - { offset: 0x17774, size: 0x8, addend: 0x0, symName: '__ZN4core3ptr181drop_in_place$LT$core..option..Option$LT$gimli..read..line..IncompleteLineProgram$LT$gimli..read..endian_slice..EndianSlice$LT$gimli..endianity..LittleEndian$GT$$C$usize$GT$$GT$$GT$17h38e25e71fe8831cdE', symObjAddr: 0x2BB0, symBinAddr: 0x100008190, symSize: 0x94 }
  - { offset: 0x17A68, size: 0x8, addend: 0x0, symName: '__ZN4core3ptr184drop_in_place$LT$core..result..Result$LT$addr2line..function..Functions$LT$gimli..read..endian_slice..EndianSlice$LT$gimli..endianity..LittleEndian$GT$$GT$$C$gimli..read..Error$GT$$GT$17h67b01cc5fe4b4d77E', symObjAddr: 0x2C44, symBinAddr: 0x100008224, symSize: 0xD8 }
  - { offset: 0x18411, size: 0x8, addend: 0x0, symName: '__ZN4core3ptr223drop_in_place$LT$std..sys..thread_local..native..lazy..State$LT$core..cell..Cell$LT$core..option..Option$LT$alloc..sync..Arc$LT$std..sync..poison..mutex..Mutex$LT$alloc..vec..Vec$LT$u8$GT$$GT$$GT$$GT$$GT$$C$$LP$$RP$$GT$$GT$17hf33b6cd44dbd77afE', symObjAddr: 0x2D90, symBinAddr: 0x1000082FC, symSize: 0x40 }
  - { offset: 0x184DF, size: 0x8, addend: 0x0, symName: '__ZN4core3ptr250drop_in_place$LT$$LP$gimli..read..UnitOffset$C$addr2line..lazy..LazyCell$LT$core..result..Result$LT$addr2line..function..Function$LT$gimli..read..endian_slice..EndianSlice$LT$gimli..endianity..LittleEndian$GT$$GT$$C$gimli..read..Error$GT$$GT$$RP$$GT$17h5b4f3e306fcf4a3aE', symObjAddr: 0x2DF8, symBinAddr: 0x10000833C, symSize: 0x64 }
  - { offset: 0x184F6, size: 0x8, addend: 0x0, symName: '__ZN4core3ptr250drop_in_place$LT$$LP$gimli..read..UnitOffset$C$addr2line..lazy..LazyCell$LT$core..result..Result$LT$addr2line..function..Function$LT$gimli..read..endian_slice..EndianSlice$LT$gimli..endianity..LittleEndian$GT$$GT$$C$gimli..read..Error$GT$$GT$$RP$$GT$17h5b4f3e306fcf4a3aE', symObjAddr: 0x2DF8, symBinAddr: 0x10000833C, symSize: 0x64 }
  - { offset: 0x1850B, size: 0x8, addend: 0x0, symName: '__ZN4core3ptr250drop_in_place$LT$$LP$gimli..read..UnitOffset$C$addr2line..lazy..LazyCell$LT$core..result..Result$LT$addr2line..function..Function$LT$gimli..read..endian_slice..EndianSlice$LT$gimli..endianity..LittleEndian$GT$$GT$$C$gimli..read..Error$GT$$GT$$RP$$GT$17h5b4f3e306fcf4a3aE', symObjAddr: 0x2DF8, symBinAddr: 0x10000833C, symSize: 0x64 }
  - { offset: 0x18520, size: 0x8, addend: 0x0, symName: '__ZN4core3ptr250drop_in_place$LT$$LP$gimli..read..UnitOffset$C$addr2line..lazy..LazyCell$LT$core..result..Result$LT$addr2line..function..Function$LT$gimli..read..endian_slice..EndianSlice$LT$gimli..endianity..LittleEndian$GT$$GT$$C$gimli..read..Error$GT$$GT$$RP$$GT$17h5b4f3e306fcf4a3aE', symObjAddr: 0x2DF8, symBinAddr: 0x10000833C, symSize: 0x64 }
  - { offset: 0x18660, size: 0x8, addend: 0x0, symName: '__ZN4core3ptr273drop_in_place$LT$alloc..vec..Vec$LT$$LP$gimli..read..UnitOffset$C$addr2line..lazy..LazyCell$LT$core..result..Result$LT$addr2line..function..Function$LT$gimli..read..endian_slice..EndianSlice$LT$gimli..endianity..LittleEndian$GT$$GT$$C$gimli..read..Error$GT$$GT$$RP$$GT$$GT$17hc235618391bfcb04E', symObjAddr: 0x2E5C, symBinAddr: 0x1000083A0, symSize: 0xAC }
  - { offset: 0x1888E, size: 0x8, addend: 0x0, symName: '__ZN4core3ptr275drop_in_place$LT$gimli..read..line..LineRows$LT$gimli..read..endian_slice..EndianSlice$LT$gimli..endianity..LittleEndian$GT$$C$gimli..read..line..IncompleteLineProgram$LT$gimli..read..endian_slice..EndianSlice$LT$gimli..endianity..LittleEndian$GT$$C$usize$GT$$C$usize$GT$$GT$17hc6795293cbbcc798E', symObjAddr: 0x2F08, symBinAddr: 0x10000844C, symSize: 0x88 }
  - { offset: 0x18B00, size: 0x8, addend: 0x0, symName: '__ZN4core3ptr280drop_in_place$LT$$LT$alloc..collections..btree..map..IntoIter$LT$K$C$V$C$A$GT$$u20$as$u20$core..ops..drop..Drop$GT$..drop..DropGuard$LT$u64$C$core..result..Result$LT$alloc..sync..Arc$LT$gimli..read..abbrev..Abbreviations$GT$$C$gimli..read..Error$GT$$C$alloc..alloc..Global$GT$$GT$17h353e5ffc7a96479cE', symObjAddr: 0x2F90, symBinAddr: 0x1000084D4, symSize: 0x84 }
  - { offset: 0x18C78, size: 0x8, addend: 0x0, symName: '__ZN4core3ptr285drop_in_place$LT$alloc..boxed..Box$LT$$u5b$$LP$gimli..read..UnitOffset$C$addr2line..lazy..LazyCell$LT$core..result..Result$LT$addr2line..function..Function$LT$gimli..read..endian_slice..EndianSlice$LT$gimli..endianity..LittleEndian$GT$$GT$$C$gimli..read..Error$GT$$GT$$RP$$u5d$$GT$$GT$17h8446e3ad6c35222eE', symObjAddr: 0x3014, symBinAddr: 0x100008558, symSize: 0x9C }
  - { offset: 0x18C8F, size: 0x8, addend: 0x0, symName: '__ZN4core3ptr285drop_in_place$LT$alloc..boxed..Box$LT$$u5b$$LP$gimli..read..UnitOffset$C$addr2line..lazy..LazyCell$LT$core..result..Result$LT$addr2line..function..Function$LT$gimli..read..endian_slice..EndianSlice$LT$gimli..endianity..LittleEndian$GT$$GT$$C$gimli..read..Error$GT$$GT$$RP$$u5d$$GT$$GT$17h8446e3ad6c35222eE', symObjAddr: 0x3014, symBinAddr: 0x100008558, symSize: 0x9C }
  - { offset: 0x18E8A, size: 0x8, addend: 0x0, symName: '__ZN4core3ptr383drop_in_place$LT$core..result..Result$LT$core..option..Option$LT$alloc..boxed..Box$LT$$LP$alloc..sync..Arc$LT$gimli..read..dwarf..Dwarf$LT$gimli..read..endian_slice..EndianSlice$LT$gimli..endianity..LittleEndian$GT$$GT$$GT$$C$gimli..read..dwarf..Unit$LT$gimli..read..endian_slice..EndianSlice$LT$gimli..endianity..LittleEndian$GT$$C$usize$GT$$RP$$GT$$GT$$C$gimli..read..Error$GT$$GT$17h32bd0003606b89f6E', symObjAddr: 0x315C, symBinAddr: 0x1000085F4, symSize: 0xD4 }
  - { offset: 0x19073, size: 0x8, addend: 0x0, symName: '__ZN4core3ptr40drop_in_place$LT$std..thread..Thread$GT$17h807fd72ff6fb2bfaE', symObjAddr: 0x32AC, symBinAddr: 0x1000086C8, symSize: 0x38 }
  - { offset: 0x19149, size: 0x8, addend: 0x0, symName: '__ZN4core3ptr42drop_in_place$LT$alloc..string..String$GT$17h9dda68404cced042E', symObjAddr: 0x3360, symBinAddr: 0x100008700, symSize: 0x28 }
  - { offset: 0x1921E, size: 0x8, addend: 0x0, symName: '__ZN4core3ptr42drop_in_place$LT$std..io..error..Error$GT$17h3b5734fc7a295b69E', symObjAddr: 0x3388, symBinAddr: 0x100008728, symSize: 0xAC }
  - { offset: 0x19432, size: 0x8, addend: 0x0, symName: '__ZN4core3ptr44drop_in_place$LT$object..read..ObjectMap$GT$17h2a7216525f9d0bf6E', symObjAddr: 0x3434, symBinAddr: 0x1000087D4, symSize: 0x58 }
  - { offset: 0x1956D, size: 0x8, addend: 0x0, symName: '__ZN4core3ptr46drop_in_place$LT$std..io..stdio..StdinLock$GT$17h4ac3578af548aab3E', symObjAddr: 0x3564, symBinAddr: 0x10000882C, symSize: 0x54 }
  - { offset: 0x19584, size: 0x8, addend: 0x0, symName: '__ZN4core3ptr46drop_in_place$LT$std..io..stdio..StdinLock$GT$17h4ac3578af548aab3E', symObjAddr: 0x3564, symBinAddr: 0x10000882C, symSize: 0x54 }
  - { offset: 0x19599, size: 0x8, addend: 0x0, symName: '__ZN4core3ptr46drop_in_place$LT$std..io..stdio..StdinLock$GT$17h4ac3578af548aab3E', symObjAddr: 0x3564, symBinAddr: 0x10000882C, symSize: 0x54 }
  - { offset: 0x196A1, size: 0x8, addend: 0x0, symName: '__ZN4core3ptr55drop_in_place$LT$gimli..read..abbrev..Abbreviations$GT$17h01bca7751e5fdda0E', symObjAddr: 0x3904, symBinAddr: 0x100008880, symSize: 0x84 }
  - { offset: 0x19858, size: 0x8, addend: 0x0, symName: '__ZN4core3ptr56drop_in_place$LT$std..sys..sync..rwlock..queue..Node$GT$17he2b02fdd4f01fffdE', symObjAddr: 0x3A08, symBinAddr: 0x100008904, symSize: 0x40 }
  - { offset: 0x19985, size: 0x8, addend: 0x0, symName: '__ZN4core3ptr60drop_in_place$LT$gimli..read..abbrev..AbbreviationsCache$GT$17ha39fcc71cf0c252dE', symObjAddr: 0x3A58, symBinAddr: 0x100008944, symSize: 0xCC }
  - { offset: 0x19B44, size: 0x8, addend: 0x0, symName: '__ZN4core3ptr62drop_in_place$LT$std..sys..sync..rwlock..queue..PanicGuard$GT$17h84817005232c8380E', symObjAddr: 0x3B24, symBinAddr: 0x100008A10, symSize: 0x44 }
  - { offset: 0x19B8A, size: 0x8, addend: 0x0, symName: '__ZN4core3ptr64drop_in_place$LT$std..sys..pal..unix..sync..mutex..AttrGuard$GT$17h43e5db45cb361577E', symObjAddr: 0x3B68, symBinAddr: 0x100008A54, symSize: 0x48 }
  - { offset: 0x19BC5, size: 0x8, addend: 0x0, symName: '__ZN4core3ptr65drop_in_place$LT$alloc..vec..Vec$LT$alloc..string..String$GT$$GT$17h80a07bb6b2959b25E', symObjAddr: 0x3BB0, symBinAddr: 0x100008A9C, symSize: 0x80 }
  - { offset: 0x19D35, size: 0x8, addend: 0x0, symName: '__ZN4core3ptr65drop_in_place$LT$std..backtrace_rs..symbolize..gimli..Mapping$GT$17hd2f7d50eeca8c326E', symObjAddr: 0x3C30, symBinAddr: 0x100008B1C, symSize: 0x70 }
  - { offset: 0x19DB3, size: 0x8, addend: 0x0, symName: '__ZN4core3ptr66drop_in_place$LT$std..backtrace_rs..backtrace..libunwind..Bomb$GT$17h643998ffb07e9ecaE', symObjAddr: 0x3CF8, symBinAddr: 0x100008B8C, symSize: 0x40 }
  - { offset: 0x19E24, size: 0x8, addend: 0x0, symName: '__ZN4core3ptr67drop_in_place$LT$alloc..vec..Vec$LT$addr2line..LineSequence$GT$$GT$17h9f15990e313984d0E', symObjAddr: 0x3D38, symBinAddr: 0x100008BCC, symSize: 0x84 }
  - { offset: 0x19F7B, size: 0x8, addend: 0x0, symName: '__ZN4core3ptr68drop_in_place$LT$core..option..Option$LT$std..thread..Thread$GT$$GT$17h48ea4a8848120a56E', symObjAddr: 0x3DBC, symBinAddr: 0x100008C50, symSize: 0x40 }
  - { offset: 0x1A0BF, size: 0x8, addend: 0x0, symName: '__ZN4core3ptr70drop_in_place$LT$std..backtrace_rs..symbolize..gimli..stash..Stash$GT$17hf623dcf59f66c18eE', symObjAddr: 0x3EF8, symBinAddr: 0x100008C90, symSize: 0xB8 }
  - { offset: 0x1A396, size: 0x8, addend: 0x0, symName: '__ZN4core3ptr71drop_in_place$LT$std..backtrace_rs..symbolize..gimli..macho..Object$GT$17h0a58239dde6958f4E', symObjAddr: 0x3FB0, symBinAddr: 0x100008D48, symSize: 0x15C }
  - { offset: 0x1A6CA, size: 0x8, addend: 0x0, symName: '__ZN4core3ptr72drop_in_place$LT$core..option..Option$LT$object..read..ObjectMap$GT$$GT$17ha98833c74b6a9010E', symObjAddr: 0x4178, symBinAddr: 0x100008EA4, symSize: 0x64 }
  - { offset: 0x1A80E, size: 0x8, addend: 0x0, symName: '__ZN4core3ptr77drop_in_place$LT$alloc..boxed..Box$LT$$u5b$alloc..string..String$u5d$$GT$$GT$17hc56ba6d7bf97e3b7E', symObjAddr: 0x4234, symBinAddr: 0x100008F08, symSize: 0x70 }
  - { offset: 0x1A825, size: 0x8, addend: 0x0, symName: '__ZN4core3ptr77drop_in_place$LT$alloc..boxed..Box$LT$$u5b$alloc..string..String$u5d$$GT$$GT$17hc56ba6d7bf97e3b7E', symObjAddr: 0x4234, symBinAddr: 0x100008F08, symSize: 0x70 }
  - { offset: 0x1A92E, size: 0x8, addend: 0x0, symName: '__ZN4core3ptr77drop_in_place$LT$std..panicking..begin_panic_handler..FormatStringPayload$GT$17hc6572e918a98a8c8E', symObjAddr: 0x42A4, symBinAddr: 0x100008F78, symSize: 0x34 }
  - { offset: 0x1A9E9, size: 0x8, addend: 0x0, symName: '__ZN4core3ptr79drop_in_place$LT$std..sync..poison..rwlock..RwLockReadGuard$LT$$LP$$RP$$GT$$GT$17h71f50557d7356a40E', symObjAddr: 0x43C8, symBinAddr: 0x100008FAC, symSize: 0x68 }
  - { offset: 0x1AA82, size: 0x8, addend: 0x0, symName: '__ZN4core3ptr81drop_in_place$LT$core..result..Result$LT$$LP$$RP$$C$std..io..error..Error$GT$$GT$17h9d0db821bfbf8206E', symObjAddr: 0x44C4, symBinAddr: 0x100009014, symSize: 0x20 }
  - { offset: 0x1AAA2, size: 0x8, addend: 0x0, symName: '__ZN4core3ptr84drop_in_place$LT$alloc..sync..ArcInner$LT$gimli..read..abbrev..Abbreviations$GT$$GT$17h8cc21cd1f1d083baE', symObjAddr: 0x4574, symBinAddr: 0x100009034, symSize: 0x84 }
  - { offset: 0x1AC76, size: 0x8, addend: 0x0, symName: '__ZN4core3ptr86drop_in_place$LT$core..result..Result$LT$addr2line..Lines$C$gimli..read..Error$GT$$GT$17h7536b96be541d814E', symObjAddr: 0x45F8, symBinAddr: 0x1000090B8, symSize: 0xE4 }
  - { offset: 0x1AED4, size: 0x8, addend: 0x0, symName: '__ZN4core3ptr87drop_in_place$LT$alloc..sync..ArcInner$LT$std..sys..pal..unix..fs..InnerReadDir$GT$$GT$17hb3a4c1e323bf7af0E', symObjAddr: 0x46DC, symBinAddr: 0x10000919C, symSize: 0x60 }
  - { offset: 0x1B0B7, size: 0x8, addend: 0x0, symName: '__ZN4core3ptr88drop_in_place$LT$alloc..vec..Vec$LT$std..backtrace_rs..symbolize..gimli..Library$GT$$GT$17he97f94d761a81b75E', symObjAddr: 0x4770, symBinAddr: 0x1000091FC, symSize: 0x98 }
  - { offset: 0x1B2C9, size: 0x8, addend: 0x0, symName: '__ZN4core3ptr90drop_in_place$LT$std..io..buffered..bufwriter..BufWriter$LT$W$GT$..flush_buf..BufGuard$GT$17h8c94c545504c3f9fE', symObjAddr: 0x4808, symBinAddr: 0x100009294, symSize: 0x60 }
  - { offset: 0x1B43E, size: 0x8, addend: 0x0, symName: '__ZN4core3ptr95drop_in_place$LT$core..option..IntoIter$LT$std..backtrace_rs..symbolize..gimli..Library$GT$$GT$17h88e295b487d2e312E', symObjAddr: 0x48E4, symBinAddr: 0x1000092F4, symSize: 0x5C }
  - { offset: 0x1B45C, size: 0x8, addend: 0x0, symName: '__ZN4core3ptr95drop_in_place$LT$core..option..IntoIter$LT$std..backtrace_rs..symbolize..gimli..Library$GT$$GT$17h88e295b487d2e312E', symObjAddr: 0x48E4, symBinAddr: 0x1000092F4, symSize: 0x5C }
  - { offset: 0x1B471, size: 0x8, addend: 0x0, symName: '__ZN4core3ptr95drop_in_place$LT$core..option..IntoIter$LT$std..backtrace_rs..symbolize..gimli..Library$GT$$GT$17h88e295b487d2e312E', symObjAddr: 0x48E4, symBinAddr: 0x1000092F4, symSize: 0x5C }
  - { offset: 0x1B5D7, size: 0x8, addend: 0x0, symName: '__ZN4core3ptr95drop_in_place$LT$std..io..buffered..linewriter..LineWriter$LT$std..io..stdio..StdoutRaw$GT$$GT$17hce8b23f6521aadedE', symObjAddr: 0x4940, symBinAddr: 0x100009350, symSize: 0xF0 }
  - { offset: 0x1D6C4, size: 0x8, addend: 0x0, symName: __ZN4core5slice4sort6shared5pivot11median3_rec17h102466d42431b70aE, symObjAddr: 0x4D60, symBinAddr: 0x100009454, symSize: 0xCC }
  - { offset: 0x1D7BB, size: 0x8, addend: 0x0, symName: __ZN4core5slice4sort6shared5pivot11median3_rec17h11517364b9cab5f9E, symObjAddr: 0x4E2C, symBinAddr: 0x100009520, symSize: 0x11C }
  - { offset: 0x1D8B4, size: 0x8, addend: 0x0, symName: __ZN4core5slice4sort6shared5pivot11median3_rec17h1ac250c4a83e4542E, symObjAddr: 0x4F48, symBinAddr: 0x10000963C, symSize: 0xD0 }
  - { offset: 0x1D9AB, size: 0x8, addend: 0x0, symName: __ZN4core5slice4sort6shared5pivot11median3_rec17h4fb5bc4cf66a4030E, symObjAddr: 0x5018, symBinAddr: 0x10000970C, symSize: 0xD0 }
  - { offset: 0x1DAA2, size: 0x8, addend: 0x0, symName: __ZN4core5slice4sort6shared5pivot11median3_rec17h6fad6c6a260af7f9E, symObjAddr: 0x50E8, symBinAddr: 0x1000097DC, symSize: 0xCC }
  - { offset: 0x1DB99, size: 0x8, addend: 0x0, symName: __ZN4core5slice4sort6shared5pivot11median3_rec17h7bfa4c676833d0e0E, symObjAddr: 0x51B4, symBinAddr: 0x1000098A8, symSize: 0xD0 }
  - { offset: 0x1DC90, size: 0x8, addend: 0x0, symName: __ZN4core5slice4sort6shared5pivot11median3_rec17h7ef82ce41f8edf56E, symObjAddr: 0x5284, symBinAddr: 0x100009978, symSize: 0xCC }
  - { offset: 0x1DDDD, size: 0x8, addend: 0x0, symName: __ZN4core5slice4sort6shared5pivot11median3_rec17h99e796737ce88418E, symObjAddr: 0x5350, symBinAddr: 0x100009A44, symSize: 0x134 }
  - { offset: 0x1E0C8, size: 0x8, addend: 0x0, symName: __ZN4core5slice4sort6shared9smallsort12sort4_stable17hd8f464d664b9a14bE, symObjAddr: 0x5484, symBinAddr: 0x100009B78, symSize: 0x180 }
  - { offset: 0x1E4B0, size: 0x8, addend: 0x0, symName: __ZN4core5slice4sort6shared9smallsort12sort4_stable17he0eda34a3e2b4444E, symObjAddr: 0x5604, symBinAddr: 0x100009CF8, symSize: 0x1B4 }
  - { offset: 0x1E687, size: 0x8, addend: 0x0, symName: __ZN4core5slice4sort6shared9smallsort12sort8_stable17h834a2cca1395c7d8E, symObjAddr: 0x57B8, symBinAddr: 0x100009EAC, symSize: 0x2B8 }
  - { offset: 0x1EC09, size: 0x8, addend: 0x0, symName: __ZN4core5slice4sort6shared9smallsort18small_sort_general17h0ac3a4d18410f989E, symObjAddr: 0x5A70, symBinAddr: 0x10000A164, symSize: 0x490 }
  - { offset: 0x1F30F, size: 0x8, addend: 0x0, symName: __ZN4core5slice4sort6shared9smallsort18small_sort_general17h6ec16d9206821662E, symObjAddr: 0x5F00, symBinAddr: 0x10000A5F4, symSize: 0x3E0 }
  - { offset: 0x1F810, size: 0x8, addend: 0x0, symName: __ZN4core5slice4sort6shared9smallsort25insertion_sort_shift_left17h0989c4b11ad91600E, symObjAddr: 0x62E0, symBinAddr: 0x10000A9D4, symSize: 0xFC }
  - { offset: 0x1F9B2, size: 0x8, addend: 0x0, symName: __ZN4core5slice4sort6shared9smallsort25insertion_sort_shift_left17h9184f303003cbbd5E, symObjAddr: 0x63DC, symBinAddr: 0x10000AAD0, symSize: 0xB0 }
  - { offset: 0x1FA45, size: 0x8, addend: 0x0, symName: __ZN4core5slice4sort6shared9smallsort25insertion_sort_shift_left17h96bb7fa0340d9f25E, symObjAddr: 0x648C, symBinAddr: 0x10000AB80, symSize: 0xAC }
  - { offset: 0x1FAE5, size: 0x8, addend: 0x0, symName: __ZN4core5slice4sort6shared9smallsort25insertion_sort_shift_left17hb5cd8041cfccf514E, symObjAddr: 0x6538, symBinAddr: 0x10000AC2C, symSize: 0x90 }
  - { offset: 0x1FB85, size: 0x8, addend: 0x0, symName: __ZN4core5slice4sort6shared9smallsort25insertion_sort_shift_left17hd8089fb2c2aa137dE, symObjAddr: 0x65C8, symBinAddr: 0x10000ACBC, symSize: 0xB4 }
  - { offset: 0x1FC25, size: 0x8, addend: 0x0, symName: __ZN4core5slice4sort6shared9smallsort25insertion_sort_shift_left17hdef07ab9d854a7f9E, symObjAddr: 0x667C, symBinAddr: 0x10000AD70, symSize: 0xCC }
  - { offset: 0x1FD30, size: 0x8, addend: 0x0, symName: __ZN4core5slice4sort6shared9smallsort25insertion_sort_shift_left17he1267148c662cf6cE, symObjAddr: 0x6748, symBinAddr: 0x10000AE3C, symSize: 0xBC }
  - { offset: 0x1FDD0, size: 0x8, addend: 0x0, symName: __ZN4core5slice4sort6shared9smallsort25insertion_sort_shift_left17he3b8de4d5a76f0d1E, symObjAddr: 0x6804, symBinAddr: 0x10000AEF8, symSize: 0xA8 }
  - { offset: 0x20093, size: 0x8, addend: 0x0, symName: __ZN4core5slice4sort6stable14driftsort_main17h12174fbcf252d4e5E, symObjAddr: 0x68AC, symBinAddr: 0x10000AFA0, symSize: 0x16C }
  - { offset: 0x203CE, size: 0x8, addend: 0x0, symName: __ZN4core5slice4sort6stable14driftsort_main17h2c015a5cf56d7fbdE, symObjAddr: 0x6A18, symBinAddr: 0x10000B10C, symSize: 0x148 }
  - { offset: 0x20631, size: 0x8, addend: 0x0, symName: __ZN4core5slice4sort6stable14driftsort_main17h2f22f9cd1fb91e21E, symObjAddr: 0x6B60, symBinAddr: 0x10000B254, symSize: 0x148 }
  - { offset: 0x20916, size: 0x8, addend: 0x0, symName: __ZN4core5slice4sort6stable14driftsort_main17h82aa6a423ccdf743E, symObjAddr: 0x6CA8, symBinAddr: 0x10000B39C, symSize: 0x16C }
  - { offset: 0x20C51, size: 0x8, addend: 0x0, symName: __ZN4core5slice4sort6stable14driftsort_main17ha6d0cd62a6e0e28aE, symObjAddr: 0x6E14, symBinAddr: 0x10000B508, symSize: 0x148 }
  - { offset: 0x20F36, size: 0x8, addend: 0x0, symName: __ZN4core5slice4sort6stable14driftsort_main17hccf74d0c5c087230E, symObjAddr: 0x6F5C, symBinAddr: 0x10000B650, symSize: 0x148 }
  - { offset: 0x213E9, size: 0x8, addend: 0x0, symName: __ZN4core5slice4sort6stable5drift4sort17h09a57828391b8bfaE, symObjAddr: 0x70A4, symBinAddr: 0x10000B798, symSize: 0x63C }
  - { offset: 0x21AA8, size: 0x8, addend: 0x0, symName: __ZN4core5slice4sort6stable5drift4sort17h3d0bb4c3140d0d01E, symObjAddr: 0x76E0, symBinAddr: 0x10000BDD4, symSize: 0x5E8 }
  - { offset: 0x2217B, size: 0x8, addend: 0x0, symName: __ZN4core5slice4sort6stable5drift4sort17h40b131580120085aE, symObjAddr: 0x7CC8, symBinAddr: 0x10000C3BC, symSize: 0x538 }
  - { offset: 0x2289A, size: 0x8, addend: 0x0, symName: __ZN4core5slice4sort6stable5drift4sort17h65c07a24b8269eb8E, symObjAddr: 0x8200, symBinAddr: 0x10000C8F4, symSize: 0x5E0 }
  - { offset: 0x22F45, size: 0x8, addend: 0x0, symName: __ZN4core5slice4sort6stable5drift4sort17hb125d90edfefbb3eE, symObjAddr: 0x87E0, symBinAddr: 0x10000CED4, symSize: 0x6F0 }
  - { offset: 0x23663, size: 0x8, addend: 0x0, symName: __ZN4core5slice4sort6stable5drift4sort17hf5ad701f2fcaa020E, symObjAddr: 0x8ED0, symBinAddr: 0x10000D5C4, symSize: 0x4E0 }
  - { offset: 0x23EC6, size: 0x8, addend: 0x0, symName: __ZN4core5slice4sort6stable9quicksort9quicksort17h10ae87d02ab1123fE, symObjAddr: 0x93B0, symBinAddr: 0x10000DAA4, symSize: 0x6C8 }
  - { offset: 0x24940, size: 0x8, addend: 0x0, symName: __ZN4core5slice4sort6stable9quicksort9quicksort17h214f26053ebdb6a6E, symObjAddr: 0x9A78, symBinAddr: 0x10000E16C, symSize: 0x7FC }
  - { offset: 0x254FC, size: 0x8, addend: 0x0, symName: __ZN4core5slice4sort6stable9quicksort9quicksort17h33382726608c75edE, symObjAddr: 0xA274, symBinAddr: 0x10000E968, symSize: 0x820 }
  - { offset: 0x260BA, size: 0x8, addend: 0x0, symName: __ZN4core5slice4sort6stable9quicksort9quicksort17h595e56f59978533bE, symObjAddr: 0xAA94, symBinAddr: 0x10000F188, symSize: 0x6F0 }
  - { offset: 0x26B34, size: 0x8, addend: 0x0, symName: __ZN4core5slice4sort6stable9quicksort9quicksort17hbe76084cec75eee4E, symObjAddr: 0xB184, symBinAddr: 0x10000F878, symSize: 0x73C }
  - { offset: 0x27239, size: 0x8, addend: 0x0, symName: __ZN4core5slice4sort6stable9quicksort9quicksort17hd28cecf8acb91878E, symObjAddr: 0xB8C0, symBinAddr: 0x10000FFB4, symSize: 0x828 }
  - { offset: 0x28318, size: 0x8, addend: 0x0, symName: __ZN4core5slice4sort8unstable7ipnsort17hb41fabd2da2368e0E, symObjAddr: 0xC0E8, symBinAddr: 0x1000107DC, symSize: 0x290 }
  - { offset: 0x285AA, size: 0x8, addend: 0x0, symName: __ZN4core5slice4sort8unstable7ipnsort17hba515166cebb11c3E, symObjAddr: 0xC378, symBinAddr: 0x100010A6C, symSize: 0x1E4 }
  - { offset: 0x286CC, size: 0x8, addend: 0x0, symName: __ZN4core5slice4sort8unstable8heapsort8heapsort17h911b53a7fd699b42E, symObjAddr: 0xC55C, symBinAddr: 0x100010C50, symSize: 0x160 }
  - { offset: 0x289F1, size: 0x8, addend: 0x0, symName: __ZN4core5slice4sort8unstable8heapsort8heapsort17hda02349af9cefcf8E, symObjAddr: 0xC6BC, symBinAddr: 0x100010DB0, symSize: 0x10C }
  - { offset: 0x28C8A, size: 0x8, addend: 0x0, symName: __ZN4core5slice4sort8unstable9quicksort9quicksort17h3bb1bd802cab80b7E, symObjAddr: 0xC7C8, symBinAddr: 0x100010EBC, symSize: 0x5BC }
  - { offset: 0x298AD, size: 0x8, addend: 0x0, symName: __ZN4core5slice4sort8unstable9quicksort9quicksort17he8a78c636d0351ecE, symObjAddr: 0xCD84, symBinAddr: 0x100011478, symSize: 0x448 }
  - { offset: 0x2A22A, size: 0x8, addend: 0x0, symName: '__ZN36_$LT$T$u20$as$u20$core..any..Any$GT$7type_id17h236c814d70452eb5E', symObjAddr: 0x13C, symBinAddr: 0x100006D90, symSize: 0x30 }
  - { offset: 0x2A243, size: 0x8, addend: 0x0, symName: '__ZN36_$LT$T$u20$as$u20$core..any..Any$GT$7type_id17h5091787616ad0692E', symObjAddr: 0x19C, symBinAddr: 0x100006DC0, symSize: 0x30 }
  - { offset: 0x2A29E, size: 0x8, addend: 0x0, symName: '__ZN42_$LT$$RF$T$u20$as$u20$core..fmt..Debug$GT$3fmt17h37707a9a724a6a16E', symObjAddr: 0x4FC, symBinAddr: 0x100006DF0, symSize: 0x1C }
  - { offset: 0x2A2B1, size: 0x8, addend: 0x0, symName: '__ZN42_$LT$$RF$T$u20$as$u20$core..fmt..Debug$GT$3fmt17h8a402db443669dddE', symObjAddr: 0x9B0, symBinAddr: 0x100006E0C, symSize: 0x30 }
  - { offset: 0x2A303, size: 0x8, addend: 0x0, symName: '__ZN42_$LT$$RF$T$u20$as$u20$core..fmt..Debug$GT$3fmt17he69f975b951a3f91E', symObjAddr: 0xC60, symBinAddr: 0x100006E3C, symSize: 0x1C }
  - { offset: 0x2A377, size: 0x8, addend: 0x0, symName: '__ZN4core3fmt3num50_$LT$impl$u20$core..fmt..Debug$u20$for$u20$i32$GT$3fmt17h97822028e78381deE', symObjAddr: 0xD84, symBinAddr: 0x100006EDC, symSize: 0x2C }
  - { offset: 0x2A665, size: 0x8, addend: 0x0, symName: '__ZN44_$LT$$RF$T$u20$as$u20$core..fmt..Display$GT$3fmt17h67831521bc10098aE', symObjAddr: 0xCB4, symBinAddr: 0x100006E58, symSize: 0x68 }
  - { offset: 0x2A773, size: 0x8, addend: 0x0, symName: '__ZN44_$LT$$RF$T$u20$as$u20$core..fmt..Display$GT$3fmt17ha5698b9abc752392E', symObjAddr: 0xD1C, symBinAddr: 0x100006EC0, symSize: 0x1C }
  - { offset: 0x2A7AD, size: 0x8, addend: 0x0, symName: __ZN4core3fmt5Write10write_char17h4ae31e5453a5243dE, symObjAddr: 0xE60, symBinAddr: 0x100006F08, symSize: 0x17C }
  - { offset: 0x2A935, size: 0x8, addend: 0x0, symName: __ZN4core3fmt5Write10write_char17h8d806e3ac8f3b69eE, symObjAddr: 0xFDC, symBinAddr: 0x100007084, symSize: 0x174 }
  - { offset: 0x2AB70, size: 0x8, addend: 0x0, symName: __ZN4core3fmt5Write10write_char17hd5787e0cd3f8328aE, symObjAddr: 0x140C, symBinAddr: 0x1000071F8, symSize: 0x128 }
  - { offset: 0x2AD06, size: 0x8, addend: 0x0, symName: __ZN4core3fmt5Write10write_char17he4715517d6f34567E, symObjAddr: 0x1534, symBinAddr: 0x100007320, symSize: 0x140 }
  - { offset: 0x2ADB2, size: 0x8, addend: 0x0, symName: __ZN4core3fmt5Write9write_fmt17h0e4c6d685c9b6118E, symObjAddr: 0x1674, symBinAddr: 0x100007460, symSize: 0x1C }
  - { offset: 0x2ADE0, size: 0x8, addend: 0x0, symName: __ZN4core3fmt5Write9write_fmt17h17705949611f0d28E, symObjAddr: 0x1690, symBinAddr: 0x10000747C, symSize: 0x1C }
  - { offset: 0x2AE0E, size: 0x8, addend: 0x0, symName: __ZN4core3fmt5Write9write_fmt17h39368f6b59d59566E, symObjAddr: 0x16C8, symBinAddr: 0x100007498, symSize: 0x1C }
  - { offset: 0x2AE3C, size: 0x8, addend: 0x0, symName: __ZN4core3fmt5Write9write_fmt17h9a78cf5558a85d1aE, symObjAddr: 0x16E4, symBinAddr: 0x1000074B4, symSize: 0x1C }
  - { offset: 0x2AE6A, size: 0x8, addend: 0x0, symName: __ZN4core3fmt5Write9write_fmt17hc5ddf5c104dfa578E, symObjAddr: 0x171C, symBinAddr: 0x1000074D0, symSize: 0x1C }
  - { offset: 0x2AEC4, size: 0x8, addend: 0x0, symName: '__ZN50_$LT$$BP$mut$u20$T$u20$as$u20$core..fmt..Debug$GT$3fmt17h86c1233548678dd3E', symObjAddr: 0xD26C, symBinAddr: 0x1000118C0, symSize: 0x14 }
  - { offset: 0x2AF10, size: 0x8, addend: 0x0, symName: '__ZN52_$LT$$RF$mut$u20$T$u20$as$u20$core..fmt..Display$GT$3fmt17ha09ecf8075f78e89E', symObjAddr: 0xD2F4, symBinAddr: 0x1000118D4, symSize: 0x1C }
  - { offset: 0x2AF48, size: 0x8, addend: 0x0, symName: '__ZN55_$LT$$RF$str$u20$as$u20$core..str..pattern..Pattern$GT$15is_contained_in17h05fb9176bb49bbebE', symObjAddr: 0xD310, symBinAddr: 0x1000118F0, symSize: 0x3BC }
  - { offset: 0x2BC42, size: 0x8, addend: 0x0, symName: __ZN4core5panic12PanicPayload6as_str17h12945ee98ae0dd44E, symObjAddr: 0x4D4C, symBinAddr: 0x100009440, symSize: 0x14 }
  - { offset: 0x2CD0A, size: 0x8, addend: 0x0, symName: '__ZN4core3ops8function6FnOnce40call_once$u7b$$u7b$vtable.shim$u7d$$u7d$17h1b7ebe52ff360ba2E', symObjAddr: 0x1760, symBinAddr: 0x1000074EC, symSize: 0x10 }
  - { offset: 0x2CD44, size: 0x8, addend: 0x0, symName: '__ZN4core3ops8function6FnOnce40call_once$u7b$$u7b$vtable.shim$u7d$$u7d$17h23a5d57aded0fb59E', symObjAddr: 0x1784, symBinAddr: 0x1000074FC, symSize: 0x7C }
  - { offset: 0x2CEBA, size: 0x8, addend: 0x0, symName: '__ZN4core3ops8function6FnOnce40call_once$u7b$$u7b$vtable.shim$u7d$$u7d$17h2a39296c01b1f7f0E', symObjAddr: 0x1800, symBinAddr: 0x100007578, symSize: 0x10 }
  - { offset: 0x2CEF4, size: 0x8, addend: 0x0, symName: '__ZN4core3ops8function6FnOnce40call_once$u7b$$u7b$vtable.shim$u7d$$u7d$17h66cd049df3a3bcbeE', symObjAddr: 0x1828, symBinAddr: 0x100007588, symSize: 0xA4 }
  - { offset: 0x2D038, size: 0x8, addend: 0x0, symName: '__ZN4core3ops8function6FnOnce40call_once$u7b$$u7b$vtable.shim$u7d$$u7d$17hc627cc184faadbf1E', symObjAddr: 0x18F4, symBinAddr: 0x10000762C, symSize: 0x28 }
  - { offset: 0x2D072, size: 0x8, addend: 0x0, symName: '__ZN4core3ops8function6FnOnce40call_once$u7b$$u7b$vtable.shim$u7d$$u7d$17he3d0dcf6a6cf5c1fE', symObjAddr: 0x19CC, symBinAddr: 0x100007654, symSize: 0x18 }
  - { offset: 0x2D0C1, size: 0x8, addend: 0x0, symName: '__ZN4core3ops8function6FnOnce40call_once$u7b$$u7b$vtable.shim$u7d$$u7d$17he9b307618c5ac660E', symObjAddr: 0x1A0C, symBinAddr: 0x10000766C, symSize: 0x80 }
  - { offset: 0x2D253, size: 0x8, addend: 0x0, symName: '__ZN4core3ops8function6FnOnce40call_once$u7b$$u7b$vtable.shim$u7d$$u7d$17hfcc96a697c420067E', symObjAddr: 0x1A8C, symBinAddr: 0x1000076EC, symSize: 0x18 }
  - { offset: 0x2D2A2, size: 0x8, addend: 0x0, symName: '__ZN4core3ops8function6FnOnce40call_once$u7b$$u7b$vtable.shim$u7d$$u7d$17hfddbab5f4d781eb0E', symObjAddr: 0x1AA4, symBinAddr: 0x100007704, symSize: 0x60 }
  - { offset: 0x2F57F, size: 0x8, addend: 0x0, symName: '__ZN4core4cell4once17OnceCell$LT$T$GT$8try_init17h5ae554ac076cd38cE', symObjAddr: 0x4A30, symBinAddr: 0x10003B738, symSize: 0x178 }
  - { offset: 0x2F9A0, size: 0x8, addend: 0x0, symName: __ZN4core9panicking13assert_failed17hc66737b3adabfea9E, symObjAddr: 0xD214, symBinAddr: 0x10003B8B0, symSize: 0x24 }
  - { offset: 0x2FCEE, size: 0x8, addend: 0x0, symName: __ZN3std9panicking11panic_count8increase17hbb9dec7c4e821342E, symObjAddr: 0x3AA88, symBinAddr: 0x100024E38, symSize: 0x80 }
  - { offset: 0x2FDE1, size: 0x8, addend: 0x0, symName: __ZN3std9panicking11panic_count17is_zero_slow_path17hc2a1cf4dbc89efdbE, symObjAddr: 0x3ABA0, symBinAddr: 0x10003C148, symSize: 0x2C }
  - { offset: 0x2FF40, size: 0x8, addend: 0x0, symName: '__ZN3std9panicking12default_hook28_$u7b$$u7b$closure$u7d$$u7d$17h646e398272c5759aE', symObjAddr: 0x3A860, symBinAddr: 0x100024C10, symSize: 0x1BC }
  - { offset: 0x2FFF2, size: 0x8, addend: 0x0, symName: '__ZN3std9panicking12default_hook28_$u7b$$u7b$closure$u7d$$u7d$28_$u7b$$u7b$closure$u7d$$u7d$17h8f0679967d3c177fE', symObjAddr: 0x3AA1C, symBinAddr: 0x100024DCC, symSize: 0x6C }
  - { offset: 0x30025, size: 0x8, addend: 0x0, symName: __ZN3std9panicking12default_hook17hf65fd28e95db7176E, symObjAddr: 0x3A5C4, symBinAddr: 0x100024974, symSize: 0x29C }
  - { offset: 0x303FE, size: 0x8, addend: 0x0, symName: _rust_begin_unwind, symObjAddr: 0x3AC20, symBinAddr: 0x100024EB8, symSize: 0x20 }
  - { offset: 0x30464, size: 0x8, addend: 0x0, symName: '__ZN102_$LT$std..panicking..begin_panic_handler..FormatStringPayload$u20$as$u20$core..panic..PanicPayload$GT$8take_box17h8729c9d5ff07bfc2E', symObjAddr: 0x3AC40, symBinAddr: 0x100024ED8, symSize: 0x110 }
  - { offset: 0x306F4, size: 0x8, addend: 0x0, symName: '__ZN102_$LT$std..panicking..begin_panic_handler..FormatStringPayload$u20$as$u20$core..panic..PanicPayload$GT$3get17h14f63a7fe9063c7cE', symObjAddr: 0x3AD50, symBinAddr: 0x100024FE8, symSize: 0xB0 }
  - { offset: 0x3082B, size: 0x8, addend: 0x0, symName: '__ZN95_$LT$std..panicking..begin_panic_handler..FormatStringPayload$u20$as$u20$core..fmt..Display$GT$3fmt17h744ae9e96c8f2f6bE', symObjAddr: 0x3AE00, symBinAddr: 0x100025098, symSize: 0x5C }
  - { offset: 0x30926, size: 0x8, addend: 0x0, symName: '__ZN99_$LT$std..panicking..begin_panic_handler..StaticStrPayload$u20$as$u20$core..panic..PanicPayload$GT$8take_box17h62e767fe26db69c0E', symObjAddr: 0x3AE5C, symBinAddr: 0x1000250F4, symSize: 0x50 }
  - { offset: 0x3099B, size: 0x8, addend: 0x0, symName: '__ZN99_$LT$std..panicking..begin_panic_handler..StaticStrPayload$u20$as$u20$core..panic..PanicPayload$GT$3get17h8d815fbf7dbed213E', symObjAddr: 0x3AEAC, symBinAddr: 0x100025144, symSize: 0x18 }
  - { offset: 0x309B5, size: 0x8, addend: 0x0, symName: '__ZN99_$LT$std..panicking..begin_panic_handler..StaticStrPayload$u20$as$u20$core..panic..PanicPayload$GT$6as_str17h5fb5f8732a0583f9E', symObjAddr: 0x3AEC4, symBinAddr: 0x10002515C, symSize: 0x18 }
  - { offset: 0x309D5, size: 0x8, addend: 0x0, symName: '__ZN92_$LT$std..panicking..begin_panic_handler..StaticStrPayload$u20$as$u20$core..fmt..Display$GT$3fmt17hd97b3d89ff001039E', symObjAddr: 0x3AEDC, symBinAddr: 0x100025174, symSize: 0x1C }
  - { offset: 0x309F0, size: 0x8, addend: 0x0, symName: '__ZN3std9panicking19begin_panic_handler28_$u7b$$u7b$closure$u7d$$u7d$17h3b6449e2eb83bf4cE', symObjAddr: 0x3AEF8, symBinAddr: 0x100025190, symSize: 0xC4 }
  - { offset: 0x30B55, size: 0x8, addend: 0x0, symName: __ZN3std9panicking14payload_as_str17hebcac46df9b9bb7fE, symObjAddr: 0x3B0A8, symBinAddr: 0x100025254, symSize: 0xB0 }
  - { offset: 0x30C38, size: 0x8, addend: 0x0, symName: __ZN3std9panicking20rust_panic_with_hook17hc9e2ec2a12b10e12E, symObjAddr: 0x3B158, symBinAddr: 0x100025304, symSize: 0x434 }
  - { offset: 0x313A9, size: 0x8, addend: 0x0, symName: _rust_panic, symObjAddr: 0x3B6C0, symBinAddr: 0x100025738, symSize: 0x60 }
  - { offset: 0x3144E, size: 0x8, addend: 0x0, symName: __ZN3std4path4Path13_strip_prefix17h7a96ca05190f16abE, symObjAddr: 0x33988, symBinAddr: 0x1000235F8, symSize: 0x21C }
  - { offset: 0x3158C, size: 0x8, addend: 0x0, symName: __ZN3std4path4Path5_join17h0cbc2a0536a43468E, symObjAddr: 0x341A8, symBinAddr: 0x100023814, symSize: 0x1AC }
  - { offset: 0x31B0A, size: 0x8, addend: 0x0, symName: __ZN3std4path10Components15len_before_body17hdc4efd47bc26ca53E, symObjAddr: 0x31C0C, symBinAddr: 0x1000227B0, symSize: 0x188 }
  - { offset: 0x31B21, size: 0x8, addend: 0x0, symName: __ZN3std4path10Components15len_before_body17hdc4efd47bc26ca53E, symObjAddr: 0x31C0C, symBinAddr: 0x1000227B0, symSize: 0x188 }
  - { offset: 0x31B36, size: 0x8, addend: 0x0, symName: __ZN3std4path10Components15len_before_body17hdc4efd47bc26ca53E, symObjAddr: 0x31C0C, symBinAddr: 0x1000227B0, symSize: 0x188 }
  - { offset: 0x31D10, size: 0x8, addend: 0x0, symName: __ZN3std4path10Components7as_path17h73ff45a802c3a554E, symObjAddr: 0x31D94, symBinAddr: 0x100022938, symSize: 0x530 }
  - { offset: 0x321D9, size: 0x8, addend: 0x0, symName: __ZN3std4path10Components25parse_next_component_back17hc1eaffbfa7d492e3E, symObjAddr: 0x322C4, symBinAddr: 0x100022E68, symSize: 0x120 }
  - { offset: 0x323D4, size: 0x8, addend: 0x0, symName: '__ZN80_$LT$std..path..Components$u20$as$u20$core..iter..traits..iterator..Iterator$GT$4next17hc76124ad2d87242dE', symObjAddr: 0x3257C, symBinAddr: 0x100022F88, symSize: 0x340 }
  - { offset: 0x3271D, size: 0x8, addend: 0x0, symName: '__ZN95_$LT$std..path..Components$u20$as$u20$core..iter..traits..double_ended..DoubleEndedIterator$GT$9next_back17h114f55ef86e7211aE', symObjAddr: 0x328BC, symBinAddr: 0x1000232C8, symSize: 0x330 }
  - { offset: 0x328C6, size: 0x8, addend: 0x0, symName: '__ZN61_$LT$std..path..Component$u20$as$u20$core..cmp..PartialEq$GT$2eq17hd13dbf3fd4ac317fE', symObjAddr: 0x3C1A8, symBinAddr: 0x100025E80, symSize: 0x138 }
  - { offset: 0x32A1B, size: 0x8, addend: 0x0, symName: __ZN3std7process5abort17hb91c014ef2b635b5E, symObjAddr: 0x35EEC, symBinAddr: 0x10003BD1C, symSize: 0xC }
  - { offset: 0x32AA4, size: 0x8, addend: 0x0, symName: __ZN3std3sys3pal4unix2fs4File6open_c17ha8f30e8f03572c8aE, symObjAddr: 0x3D318, symBinAddr: 0x1000261BC, symSize: 0x1A8 }
  - { offset: 0x32C01, size: 0x8, addend: 0x0, symName: '__ZN91_$LT$std..sys..pal..unix..fs..ReadDir$u20$as$u20$core..iter..traits..iterator..Iterator$GT$4next17hdc4c84704677d248E', symObjAddr: 0x3CE88, symBinAddr: 0x100025FB8, symSize: 0x138 }
  - { offset: 0x32EA7, size: 0x8, addend: 0x0, symName: '__ZN70_$LT$std..sys..pal..unix..fs..Dir$u20$as$u20$core..ops..drop..Drop$GT$4drop17ha5730963111de306E', symObjAddr: 0x3CFC0, symBinAddr: 0x1000260F0, symSize: 0xCC }
  - { offset: 0x32F89, size: 0x8, addend: 0x0, symName: __ZN3std3sys3pal4unix2fs7readdir17h02f6e5bda5f982bdE, symObjAddr: 0x3DBE4, symBinAddr: 0x100026364, symSize: 0x1A4 }
  - { offset: 0x33294, size: 0x8, addend: 0x0, symName: __ZN3std3sys3pal4unix2os13env_read_lock17h703f61f7a0f7cd0bE, symObjAddr: 0x405E8, symBinAddr: 0x100026508, symSize: 0x324 }
  - { offset: 0x3391A, size: 0x8, addend: 0x0, symName: '__ZN3std3sys3pal4unix2os6getenv28_$u7b$$u7b$closure$u7d$$u7d$17h2cddcdf732a53df5E', symObjAddr: 0x4090C, symBinAddr: 0x10002682C, symSize: 0x150 }
  - { offset: 0x33BAF, size: 0x8, addend: 0x0, symName: __ZN3std3sys3pal4unix4sync5mutex5Mutex4init17h537469914282149fE, symObjAddr: 0x43720, symBinAddr: 0x100026CD0, symSize: 0x16C }
  - { offset: 0x33C60, size: 0x8, addend: 0x0, symName: __ZN3std3sys3pal4unix4sync5mutex5Mutex4lock4fail17ha88dfb5d9e311deaE, symObjAddr: 0x438A8, symBinAddr: 0x10003C174, symSize: 0xDC }
  - { offset: 0x33F16, size: 0x8, addend: 0x0, symName: __ZN3std3sys3pal4unix14stack_overflow3imp14signal_handler17h113b3ee20eaf3fcaE, symObjAddr: 0x4318C, symBinAddr: 0x10002697C, symSize: 0x174 }
  - { offset: 0x3411D, size: 0x8, addend: 0x0, symName: __ZN3std3sys3pal4unix14stack_overflow3imp12make_handler17h8bd3e77b9c0669bfE, symObjAddr: 0x43300, symBinAddr: 0x100026AF0, symSize: 0x1E0 }
  - { offset: 0x34496, size: 0x8, addend: 0x0, symName: __ZN3std3sys3pal4unix17decode_error_kind17hfb552d4473e8a503E, symObjAddr: 0x44130, symBinAddr: 0x100026E3C, symSize: 0x30 }
  - { offset: 0x344AF, size: 0x8, addend: 0x0, symName: __ZN3std3sys3pal4unix14abort_internal17h9d11c57326ba8d13E, symObjAddr: 0x44160, symBinAddr: 0x100026E6C, symSize: 0xC }
  - { offset: 0x34510, size: 0x8, addend: 0x0, symName: __ZN3std3sys3pal6common14small_c_string24run_with_cstr_allocating17h00e51978e1a73330E, symObjAddr: 0x37AB8, symBinAddr: 0x10003BE50, symSize: 0xC4 }
  - { offset: 0x346D8, size: 0x8, addend: 0x0, symName: __ZN3std3sys3pal6common14small_c_string24run_with_cstr_allocating17hb1e9a451df5647a6E, symObjAddr: 0x37F4C, symBinAddr: 0x10003BF14, symSize: 0x9C }
  - { offset: 0x34846, size: 0x8, addend: 0x0, symName: __ZN3std3sys3pal6common14small_c_string24run_with_cstr_allocating17hcfebbc01b19fa0c7E, symObjAddr: 0x380B4, symBinAddr: 0x10003BFB0, symSize: 0xAC }
  - { offset: 0x34A39, size: 0x8, addend: 0x0, symName: '__ZN69_$LT$std..sys..os_str..bytes..Slice$u20$as$u20$core..fmt..Display$GT$3fmt17h99a3b255497359fcE', symObjAddr: 0x45694, symBinAddr: 0x100027210, symSize: 0xA0 }
  - { offset: 0x34A94, size: 0x8, addend: 0x0, symName: '__ZN3std3sys9backtrace10_print_fmt28_$u7b$$u7b$closure$u7d$$u7d$17hba3c1662704bd734E', symObjAddr: 0x3864C, symBinAddr: 0x1000241B4, symSize: 0x30 }
  - { offset: 0x34ABC, size: 0x8, addend: 0x0, symName: '__ZN3std3sys9backtrace10_print_fmt28_$u7b$$u7b$closure$u7d$$u7d$17hbd2c07eb9037f89eE', symObjAddr: 0x3867C, symBinAddr: 0x1000241E4, symSize: 0x134 }
  - { offset: 0x34BCE, size: 0x8, addend: 0x0, symName: '__ZN3std3sys9backtrace10_print_fmt28_$u7b$$u7b$closure$u7d$$u7d$28_$u7b$$u7b$closure$u7d$$u7d$17hf4c703c391a929f7E', symObjAddr: 0x387B0, symBinAddr: 0x100024318, symSize: 0x25C }
  - { offset: 0x34E08, size: 0x8, addend: 0x0, symName: __ZN3std3sys9backtrace4lock17ha6157251cdc4e250E, symObjAddr: 0x38360, symBinAddr: 0x100023EC8, symSize: 0x70 }
  - { offset: 0x34F4F, size: 0x8, addend: 0x0, symName: __ZN3std3sys9backtrace13BacktraceLock5print17h1df7364dde63dc75E, symObjAddr: 0x383D0, symBinAddr: 0x100023F38, symSize: 0x54 }
  - { offset: 0x34F9A, size: 0x8, addend: 0x0, symName: '__ZN98_$LT$std..sys..backtrace..BacktraceLock..print..DisplayBacktrace$u20$as$u20$core..fmt..Display$GT$3fmt17h6e25c13836847e70E', symObjAddr: 0x38424, symBinAddr: 0x100023F8C, symSize: 0x228 }
  - { offset: 0x3551B, size: 0x8, addend: 0x0, symName: __ZN3std3sys9backtrace26__rust_end_short_backtrace17h38d85099ddd107a3E, symObjAddr: 0x38A0C, symBinAddr: 0x100024574, symSize: 0xC }
  - { offset: 0x35534, size: 0x8, addend: 0x0, symName: __ZN3std3sys9backtrace15output_filename17heab82475b93ae3beE, symObjAddr: 0x38A24, symBinAddr: 0x100024580, symSize: 0xFC }
  - { offset: 0x356AC, size: 0x8, addend: 0x0, symName: '__ZN3std3sys11personality3gcc14find_eh_action28_$u7b$$u7b$closure$u7d$$u7d$17hf412a16d82c84faeE', symObjAddr: 0x45284, symBinAddr: 0x100026E78, symSize: 0x18 }
  - { offset: 0x356BF, size: 0x8, addend: 0x0, symName: '__ZN3std3sys11personality3gcc14find_eh_action28_$u7b$$u7b$closure$u7d$$u7d$17h2e095e7ec3ba8286E', symObjAddr: 0x4529C, symBinAddr: 0x100026E90, symSize: 0x18 }
  - { offset: 0x356EC, size: 0x8, addend: 0x0, symName: _rust_eh_personality, symObjAddr: 0x452B4, symBinAddr: 0x100026EA8, symSize: 0x368 }
  - { offset: 0x35A16, size: 0x8, addend: 0x0, symName: __ZN3std3sys11personality5dwarf2eh19read_encoded_offset17h8de56f4ff0305713E, symObjAddr: 0x38210, symBinAddr: 0x100023D78, symSize: 0x150 }
  - { offset: 0x35BB4, size: 0x8, addend: 0x0, symName: '__ZN3std3sys4sync8once_box16OnceBox$LT$T$GT$10initialize17ha132e66d6e696846E', symObjAddr: 0x38C4C, symBinAddr: 0x10003C05C, symSize: 0xEC }
  - { offset: 0x35E9D, size: 0x8, addend: 0x0, symName: __ZN3std3sys4sync6rwlock5queue6RwLock21read_unlock_contended17h6ae8d0cb50688f7cE, symObjAddr: 0x46A7C, symBinAddr: 0x10003C3B0, symSize: 0x54 }
  - { offset: 0x36020, size: 0x8, addend: 0x0, symName: __ZN3std3sys4sync6rwlock5queue6RwLock16unlock_contended17hb29fc977d284598fE, symObjAddr: 0x46AD0, symBinAddr: 0x10003C404, symSize: 0x50 }
  - { offset: 0x360FB, size: 0x8, addend: 0x0, symName: __ZN3std3sys4sync6rwlock5queue6RwLock12unlock_queue17h276c3af95fecbfcfE, symObjAddr: 0x46C68, symBinAddr: 0x1000275D8, symSize: 0x23C }
  - { offset: 0x368B3, size: 0x8, addend: 0x0, symName: __ZN3std3sys4sync6rwlock5queue9read_lock17h7abfeaf63b74c2acE, symObjAddr: 0x46784, symBinAddr: 0x1000275AC, symSize: 0x2C }
  - { offset: 0x36999, size: 0x8, addend: 0x0, symName: __ZN3std3sys4sync4once5queue4Once4call17h6dcded8596bdefd3E, symObjAddr: 0x46308, symBinAddr: 0x10003C250, symSize: 0x160 }
  - { offset: 0x36AB8, size: 0x8, addend: 0x0, symName: __ZN3std3sys4sync4once5queue4wait17haf0c6cc357a42796E, symObjAddr: 0x46468, symBinAddr: 0x1000272B0, symSize: 0x1DC }
  - { offset: 0x36FD4, size: 0x8, addend: 0x0, symName: '__ZN82_$LT$std..sys..sync..once..queue..WaiterQueue$u20$as$u20$core..ops..drop..Drop$GT$4drop17he2758873efcdcb14E', symObjAddr: 0x46644, symBinAddr: 0x10002748C, symSize: 0x120 }
  - { offset: 0x372A9, size: 0x8, addend: 0x0, symName: '__ZN3std3sys12thread_local6native4lazy20Storage$LT$T$C$D$GT$10initialize17h396fc4d6bd3775f7E', symObjAddr: 0x46F6C, symBinAddr: 0x10003C454, symSize: 0xC0 }
  - { offset: 0x3749C, size: 0x8, addend: 0x0, symName: __ZN3std3sys12thread_local6native4lazy7destroy17h366cb6b392391073E, symObjAddr: 0x4702C, symBinAddr: 0x100027814, symSize: 0x54 }
  - { offset: 0x37608, size: 0x8, addend: 0x0, symName: __ZN3std3sys12thread_local5guard5apple6enable9run_dtors17h723b80710d712ecdE, symObjAddr: 0x471C4, symBinAddr: 0x1000279AC, symSize: 0x158 }
  - { offset: 0x37B0C, size: 0x8, addend: 0x0, symName: __ZN3std3sys12thread_local11destructors4list8register17h11c2792ab0e8518fE, symObjAddr: 0x47080, symBinAddr: 0x100027868, symSize: 0x144 }
  - { offset: 0x38258, size: 0x8, addend: 0x0, symName: '__ZN58_$LT$std..io..error..Error$u20$as$u20$core..fmt..Debug$GT$3fmt17h831e4e9e5a448157E', symObjAddr: 0x26EFC, symBinAddr: 0x100020C4C, symSize: 0x10 }
  - { offset: 0x38289, size: 0x8, addend: 0x0, symName: '__ZN3std2io5error83_$LT$impl$u20$core..fmt..Debug$u20$for$u20$std..io..error..repr_bitpacked..Repr$GT$3fmt17he4f137d34cdaf490E', symObjAddr: 0x271BC, symBinAddr: 0x100020C5C, symSize: 0x294 }
  - { offset: 0x384D3, size: 0x8, addend: 0x0, symName: '__ZN60_$LT$std..io..error..Error$u20$as$u20$core..fmt..Display$GT$3fmt17h07ab10a95e6db3e5E', symObjAddr: 0x27450, symBinAddr: 0x100020EF0, symSize: 0x204 }
  - { offset: 0x38731, size: 0x8, addend: 0x0, symName: '__ZN62_$LT$std..io..error..ErrorKind$u20$as$u20$core..fmt..Debug$GT$3fmt17h2dbed8983ef8700aE', symObjAddr: 0x3C174, symBinAddr: 0x100025E4C, symSize: 0x34 }
  - { offset: 0x3879C, size: 0x8, addend: 0x0, symName: '__ZN80_$LT$std..io..Write..write_fmt..Adapter$LT$T$GT$$u20$as$u20$core..fmt..Write$GT$9write_str17h0109dcf90a9c2ce3E', symObjAddr: 0x2D0A4, symBinAddr: 0x1000220F4, symSize: 0xD4 }
  - { offset: 0x3898C, size: 0x8, addend: 0x0, symName: '__ZN80_$LT$std..io..Write..write_fmt..Adapter$LT$T$GT$$u20$as$u20$core..fmt..Write$GT$9write_str17h687749933625c429E', symObjAddr: 0x2D24C, symBinAddr: 0x1000221C8, symSize: 0x80 }
  - { offset: 0x38AD7, size: 0x8, addend: 0x0, symName: '__ZN80_$LT$std..io..Write..write_fmt..Adapter$LT$T$GT$$u20$as$u20$core..fmt..Write$GT$9write_str17h9e268a28d520eb43E', symObjAddr: 0x2D31C, symBinAddr: 0x100022248, symSize: 0xD4 }
  - { offset: 0x38C14, size: 0x8, addend: 0x0, symName: '__ZN80_$LT$std..io..Write..write_fmt..Adapter$LT$T$GT$$u20$as$u20$core..fmt..Write$GT$9write_str17he3054d1b6a42edc2E', symObjAddr: 0x2D3F0, symBinAddr: 0x10002231C, symSize: 0x50 }
  - { offset: 0x38C66, size: 0x8, addend: 0x0, symName: __ZN3std2io5Write9write_all17h7713b80a44059b92E, symObjAddr: 0x2CAD4, symBinAddr: 0x100021CE0, symSize: 0xA8 }
  - { offset: 0x38D80, size: 0x8, addend: 0x0, symName: __ZN3std2io5Write9write_fmt17ha6aef79e4d579037E, symObjAddr: 0x2CD38, symBinAddr: 0x100021D88, symSize: 0x124 }
  - { offset: 0x38F92, size: 0x8, addend: 0x0, symName: __ZN3std2io5Write9write_fmt17hae41df998e40f636E, symObjAddr: 0x2CE5C, symBinAddr: 0x100021EAC, symSize: 0x124 }
  - { offset: 0x391A4, size: 0x8, addend: 0x0, symName: __ZN3std2io5Write9write_fmt17hd4c273f34c4c0a33E, symObjAddr: 0x2CF80, symBinAddr: 0x100021FD0, symSize: 0x124 }
  - { offset: 0x39425, size: 0x8, addend: 0x0, symName: '__ZN3std2io5impls74_$LT$impl$u20$std..io..Write$u20$for$u20$alloc..vec..Vec$LT$u8$C$A$GT$$GT$9write_all17h280484049090bd38E', symObjAddr: 0x27750, symBinAddr: 0x1000210F4, symSize: 0x80 }
  - { offset: 0x39605, size: 0x8, addend: 0x0, symName: '__ZN3std2io8buffered9bufwriter18BufWriter$LT$W$GT$9flush_buf17hcef3ccdce2147587E', symObjAddr: 0x26414, symBinAddr: 0x100020A48, symSize: 0x204 }
  - { offset: 0x39B0D, size: 0x8, addend: 0x0, symName: '__ZN3std2io8buffered9bufwriter18BufWriter$LT$W$GT$14write_all_cold17h0d10b67065dd7e68E', symObjAddr: 0x267A4, symBinAddr: 0x10003BBFC, symSize: 0x120 }
  - { offset: 0x39F2D, size: 0x8, addend: 0x0, symName: __ZN3std2io5stdio5stdin17h08240977d6defaceE, symObjAddr: 0x2828C, symBinAddr: 0x100021174, symSize: 0x3C }
  - { offset: 0x39F65, size: 0x8, addend: 0x0, symName: __ZN3std2io5stdio5stdin17h08240977d6defaceE, symObjAddr: 0x2828C, symBinAddr: 0x100021174, symSize: 0x3C }
  - { offset: 0x39F7A, size: 0x8, addend: 0x0, symName: __ZN3std2io5stdio5stdin17h08240977d6defaceE, symObjAddr: 0x2828C, symBinAddr: 0x100021174, symSize: 0x3C }
  - { offset: 0x39F8E, size: 0x8, addend: 0x0, symName: __ZN3std2io5stdio5stdin17h08240977d6defaceE, symObjAddr: 0x2828C, symBinAddr: 0x100021174, symSize: 0x3C }
  - { offset: 0x39FA3, size: 0x8, addend: 0x0, symName: __ZN3std2io5stdio5stdin17h08240977d6defaceE, symObjAddr: 0x2828C, symBinAddr: 0x100021174, symSize: 0x3C }
  - { offset: 0x39FB8, size: 0x8, addend: 0x0, symName: __ZN3std2io5stdio5stdin17h08240977d6defaceE, symObjAddr: 0x2828C, symBinAddr: 0x100021174, symSize: 0x3C }
  - { offset: 0x39FCC, size: 0x8, addend: 0x0, symName: __ZN3std2io5stdio5stdin17h08240977d6defaceE, symObjAddr: 0x2828C, symBinAddr: 0x100021174, symSize: 0x3C }
  - { offset: 0x39FF7, size: 0x8, addend: 0x0, symName: __ZN3std2io5stdio5Stdin9read_line17h9b9db7486e1d4088E, symObjAddr: 0x28330, symBinAddr: 0x1000211B0, symSize: 0x15C }
  - { offset: 0x3A4BD, size: 0x8, addend: 0x0, symName: __ZN3std2io5stdio6stdout17h1a8df85c44c21af3E, symObjAddr: 0x29B3C, symBinAddr: 0x10002130C, symSize: 0x3C }
  - { offset: 0x3A4EE, size: 0x8, addend: 0x0, symName: __ZN3std2io5stdio6stdout17h1a8df85c44c21af3E, symObjAddr: 0x29B3C, symBinAddr: 0x10002130C, symSize: 0x3C }
  - { offset: 0x3A503, size: 0x8, addend: 0x0, symName: __ZN3std2io5stdio6stdout17h1a8df85c44c21af3E, symObjAddr: 0x29B3C, symBinAddr: 0x10002130C, symSize: 0x3C }
  - { offset: 0x3A517, size: 0x8, addend: 0x0, symName: __ZN3std2io5stdio6stdout17h1a8df85c44c21af3E, symObjAddr: 0x29B3C, symBinAddr: 0x10002130C, symSize: 0x3C }
  - { offset: 0x3A52C, size: 0x8, addend: 0x0, symName: __ZN3std2io5stdio6stdout17h1a8df85c44c21af3E, symObjAddr: 0x29B3C, symBinAddr: 0x10002130C, symSize: 0x3C }
  - { offset: 0x3A541, size: 0x8, addend: 0x0, symName: __ZN3std2io5stdio6stdout17h1a8df85c44c21af3E, symObjAddr: 0x29B3C, symBinAddr: 0x10002130C, symSize: 0x3C }
  - { offset: 0x3A555, size: 0x8, addend: 0x0, symName: __ZN3std2io5stdio6stdout17h1a8df85c44c21af3E, symObjAddr: 0x29B3C, symBinAddr: 0x10002130C, symSize: 0x3C }
  - { offset: 0x3A573, size: 0x8, addend: 0x0, symName: '__ZN61_$LT$$RF$std..io..stdio..Stdout$u20$as$u20$std..io..Write$GT$5flush17h066c7453b2b03659E', symObjAddr: 0x29F7C, symBinAddr: 0x10002136C, symSize: 0xBC }
  - { offset: 0x3A9B3, size: 0x8, addend: 0x0, symName: '__ZN61_$LT$$RF$std..io..stdio..Stdout$u20$as$u20$std..io..Write$GT$9write_fmt17h1b86564e61232c5bE', symObjAddr: 0x2A178, symBinAddr: 0x100021428, symSize: 0x18C }
  - { offset: 0x3AD97, size: 0x8, addend: 0x0, symName: '__ZN57_$LT$std..io..stdio..Stdout$u20$as$u20$std..io..Write$GT$5flush17hf16e58f0eec50b80E', symObjAddr: 0x29C78, symBinAddr: 0x100021348, symSize: 0x24 }
  - { offset: 0x3ADD1, size: 0x8, addend: 0x0, symName: '__ZN61_$LT$std..io..stdio..StdoutLock$u20$as$u20$std..io..Write$GT$9write_all17h5b169e2910bd0c16E', symObjAddr: 0x2A63C, symBinAddr: 0x1000215B4, symSize: 0x258 }
  - { offset: 0x3B47E, size: 0x8, addend: 0x0, symName: __ZN3std2io5stdio6Stderr4lock17h1b68cecd2f2d41b5E, symObjAddr: 0x2ABA4, symBinAddr: 0x10002180C, symSize: 0xF0 }
  - { offset: 0x3B768, size: 0x8, addend: 0x0, symName: __ZN3std2io5stdio22try_set_output_capture17h16c85eef385ec3d1E, symObjAddr: 0x2B950, symBinAddr: 0x1000218FC, symSize: 0xF4 }
  - { offset: 0x3B9B7, size: 0x8, addend: 0x0, symName: __ZN3std2io5stdio31print_to_buffer_if_capture_used17hf2fa32501fb3e018E, symObjAddr: 0x2BA44, symBinAddr: 0x1000219F0, symSize: 0x20C }
  - { offset: 0x3C0BD, size: 0x8, addend: 0x0, symName: __ZN3std2io5stdio6_print17h91e586dc5ea11662E, symObjAddr: 0x2BD20, symBinAddr: 0x100021BFC, symSize: 0xE4 }
  - { offset: 0x3C208, size: 0x8, addend: 0x0, symName: __ZN3std2io10read_until17hb4e91e1ca5e507aeE, symObjAddr: 0x2D440, symBinAddr: 0x10002236C, symSize: 0x338 }
  - { offset: 0x3C966, size: 0x8, addend: 0x0, symName: '__ZN3std4sync6poison4once4Once15call_once_force28_$u7b$$u7b$closure$u7d$$u7d$17h0057fcc17bb0e86cE', symObjAddr: 0x36674, symBinAddr: 0x100023C1C, symSize: 0x60 }
  - { offset: 0x3CA46, size: 0x8, addend: 0x0, symName: '__ZN3std4sync6poison4once4Once15call_once_force28_$u7b$$u7b$closure$u7d$$u7d$17hb2cf1c2bb88dd9dfE', symObjAddr: 0x366D4, symBinAddr: 0x100023C7C, symSize: 0x7C }
  - { offset: 0x3CB90, size: 0x8, addend: 0x0, symName: '__ZN3std4sync6poison4once4Once15call_once_force28_$u7b$$u7b$closure$u7d$$u7d$17heb649a269aa4cb2bE', symObjAddr: 0x36750, symBinAddr: 0x100023CF8, symSize: 0x80 }
  - { offset: 0x3CCFC, size: 0x8, addend: 0x0, symName: '__ZN3std4sync6poison4once4Once9call_once28_$u7b$$u7b$closure$u7d$$u7d$17h6cd3671298567da4E', symObjAddr: 0x36418, symBinAddr: 0x1000239C0, symSize: 0x25C }
  - { offset: 0x3D7B6, size: 0x8, addend: 0x0, symName: '__ZN3std4sync9once_lock17OnceLock$LT$T$GT$10initialize17h150d9cf8dd414d08E', symObjAddr: 0x371FC, symBinAddr: 0x10003BD28, symSize: 0x64 }
  - { offset: 0x3D7E1, size: 0x8, addend: 0x0, symName: '__ZN3std4sync9once_lock17OnceLock$LT$T$GT$10initialize17h150d9cf8dd414d08E', symObjAddr: 0x371FC, symBinAddr: 0x10003BD28, symSize: 0x64 }
  - { offset: 0x3D7F5, size: 0x8, addend: 0x0, symName: '__ZN3std4sync9once_lock17OnceLock$LT$T$GT$10initialize17h150d9cf8dd414d08E', symObjAddr: 0x371FC, symBinAddr: 0x10003BD28, symSize: 0x64 }
  - { offset: 0x3D809, size: 0x8, addend: 0x0, symName: '__ZN3std4sync9once_lock17OnceLock$LT$T$GT$10initialize17h150d9cf8dd414d08E', symObjAddr: 0x371FC, symBinAddr: 0x10003BD28, symSize: 0x64 }
  - { offset: 0x3D81E, size: 0x8, addend: 0x0, symName: '__ZN3std4sync9once_lock17OnceLock$LT$T$GT$10initialize17ha9eae27b8887c6b3E', symObjAddr: 0x37260, symBinAddr: 0x10003BD8C, symSize: 0x5C }
  - { offset: 0x3D849, size: 0x8, addend: 0x0, symName: '__ZN3std4sync9once_lock17OnceLock$LT$T$GT$10initialize17ha9eae27b8887c6b3E', symObjAddr: 0x37260, symBinAddr: 0x10003BD8C, symSize: 0x5C }
  - { offset: 0x3D85D, size: 0x8, addend: 0x0, symName: '__ZN3std4sync9once_lock17OnceLock$LT$T$GT$10initialize17ha9eae27b8887c6b3E', symObjAddr: 0x37260, symBinAddr: 0x10003BD8C, symSize: 0x5C }
  - { offset: 0x3D871, size: 0x8, addend: 0x0, symName: '__ZN3std4sync9once_lock17OnceLock$LT$T$GT$10initialize17ha9eae27b8887c6b3E', symObjAddr: 0x37260, symBinAddr: 0x10003BD8C, symSize: 0x5C }
  - { offset: 0x3D886, size: 0x8, addend: 0x0, symName: '__ZN3std4sync9once_lock17OnceLock$LT$T$GT$10initialize17he8f42246406b5e9dE', symObjAddr: 0x372BC, symBinAddr: 0x10003BDE8, symSize: 0x68 }
  - { offset: 0x3D8B1, size: 0x8, addend: 0x0, symName: '__ZN3std4sync9once_lock17OnceLock$LT$T$GT$10initialize17he8f42246406b5e9dE', symObjAddr: 0x372BC, symBinAddr: 0x10003BDE8, symSize: 0x68 }
  - { offset: 0x3D8C5, size: 0x8, addend: 0x0, symName: '__ZN3std4sync9once_lock17OnceLock$LT$T$GT$10initialize17he8f42246406b5e9dE', symObjAddr: 0x372BC, symBinAddr: 0x10003BDE8, symSize: 0x68 }
  - { offset: 0x3D8D9, size: 0x8, addend: 0x0, symName: '__ZN3std4sync9once_lock17OnceLock$LT$T$GT$10initialize17he8f42246406b5e9dE', symObjAddr: 0x372BC, symBinAddr: 0x10003BDE8, symSize: 0x68 }
  - { offset: 0x3DA94, size: 0x8, addend: 0x0, symName: __ZN3std6thread7current7current17h762f5277430ed35dE, symObjAddr: 0x1FC50, symBinAddr: 0x1000202E8, symSize: 0x60 }
  - { offset: 0x3DB93, size: 0x8, addend: 0x0, symName: __ZN3std6thread7current12init_current17h79f433ac8eb4e2b9E, symObjAddr: 0x1FCB0, symBinAddr: 0x10003BA4C, symSize: 0x178 }
  - { offset: 0x3DFDC, size: 0x8, addend: 0x0, symName: __ZN3std6thread6Thread9new_inner17h5f07c0795cb40719E, symObjAddr: 0x20C30, symBinAddr: 0x100020348, symSize: 0x148 }
  - { offset: 0x3E288, size: 0x8, addend: 0x0, symName: __ZN3std6thread6Thread4name17h983bbbe03c600667E, symObjAddr: 0x20E84, symBinAddr: 0x100020490, symSize: 0x44 }
  - { offset: 0x3E4D0, size: 0x8, addend: 0x0, symName: __ZN3std6thread8ThreadId3new9exhausted17h058cd01d4ed54e90E, symObjAddr: 0x20AB0, symBinAddr: 0x10003BBC4, symSize: 0x38 }
  - { offset: 0x3E5E3, size: 0x8, addend: 0x0, symName: __ZN3std12backtrace_rs9symbolize5gimli7Context3new17hcb29171165e0fe3bE, symObjAddr: 0x485DC, symBinAddr: 0x100027B90, symSize: 0x220C }
  - { offset: 0x42908, size: 0x8, addend: 0x0, symName: __ZN3std12backtrace_rs9symbolize5gimli7Context11find_frames17h5da6dfec47381ef0E, symObjAddr: 0x4A7E8, symBinAddr: 0x100029D9C, symSize: 0x3A8 }
  - { offset: 0x42D5B, size: 0x8, addend: 0x0, symName: __ZN3std12backtrace_rs9symbolize5gimli5macho6Object5parse17h58dc6f0c4bf3101bE, symObjAddr: 0x4D544, symBinAddr: 0x10002CAC8, symSize: 0xBE0 }
  - { offset: 0x44AB2, size: 0x8, addend: 0x0, symName: __ZN3std12backtrace_rs9symbolize5gimli5macho6Object7section17haf561257ba38601cE, symObjAddr: 0x4E124, symBinAddr: 0x10002D6A8, symSize: 0x3A0 }
  - { offset: 0x44F62, size: 0x8, addend: 0x0, symName: __ZN3std12backtrace_rs9symbolize5gimli5macho11find_header17had7a9a4df16259edE, symObjAddr: 0x4D370, symBinAddr: 0x10002C8F4, symSize: 0x1D4 }
  - { offset: 0x45644, size: 0x8, addend: 0x0, symName: __ZN3std12backtrace_rs9symbolize5gimli4mmap17hea8a835dd2b88f16E, symObjAddr: 0x4AB90, symBinAddr: 0x10002A144, symSize: 0x160 }
  - { offset: 0x45BF4, size: 0x8, addend: 0x0, symName: __ZN3std12backtrace_rs9symbolize5gimli7resolve17haaa3815f71ad6cc3E, symObjAddr: 0x4ACF0, symBinAddr: 0x10002A2A4, symSize: 0x2650 }
  - { offset: 0x4BB71, size: 0x8, addend: 0x0, symName: __ZN3std12backtrace_rs9symbolize6Symbol4name17hb88469d82be3f352E, symObjAddr: 0x3B800, symBinAddr: 0x100025798, symSize: 0xE4 }
  - { offset: 0x4BCA7, size: 0x8, addend: 0x0, symName: '__ZN79_$LT$std..backtrace_rs..symbolize..SymbolName$u20$as$u20$core..fmt..Display$GT$3fmt17h54752f477994ee81E', symObjAddr: 0x3BA24, symBinAddr: 0x10002587C, symSize: 0x100 }
  - { offset: 0x4BDDF, size: 0x8, addend: 0x0, symName: __ZN3std12backtrace_rs9backtrace9libunwind5trace8trace_fn17h9a6328cf054c9f17E, symObjAddr: 0x48594, symBinAddr: 0x100027B48, symSize: 0x48 }
  - { offset: 0x4BEB2, size: 0x8, addend: 0x0, symName: __ZN3std12backtrace_rs5print17BacktraceFrameFmt21print_raw_with_column17hbcb9bd75551dd587E, symObjAddr: 0x3BC24, symBinAddr: 0x10002597C, symSize: 0x4D0 }
  - { offset: 0x4C140, size: 0x8, addend: 0x0, symName: __ZN3std2rt19lang_start_internal17h5f91760815528aa2E, symObjAddr: 0x1F0E4, symBinAddr: 0x10001FAB8, symSize: 0x830 }
  - { offset: 0x4D0D1, size: 0x8, addend: 0x0, symName: __ZN3std5panic19get_backtrace_style17h35ce748393ff9335E, symObjAddr: 0x319C8, symBinAddr: 0x1000226A4, symSize: 0x10C }
  - { offset: 0x4D0EF, size: 0x8, addend: 0x0, symName: __ZN3std5panic19get_backtrace_style17h35ce748393ff9335E, symObjAddr: 0x319C8, symBinAddr: 0x1000226A4, symSize: 0x10C }
  - { offset: 0x4D104, size: 0x8, addend: 0x0, symName: __ZN3std5panic19get_backtrace_style17h35ce748393ff9335E, symObjAddr: 0x319C8, symBinAddr: 0x1000226A4, symSize: 0x10C }
  - { offset: 0x4D4ED, size: 0x8, addend: 0x0, symName: __ZN3std3env11current_dir17haf8507926c80f1caE, symObjAddr: 0x221C0, symBinAddr: 0x1000204D4, symSize: 0x1D0 }
  - { offset: 0x4D86E, size: 0x8, addend: 0x0, symName: __ZN3std3env7_var_os17hf10ceadcd1b912a6E, symObjAddr: 0x22ABC, symBinAddr: 0x1000206A4, symSize: 0x160 }
  - { offset: 0x4DB2D, size: 0x8, addend: 0x0, symName: __ZN3std2fs11OpenOptions5_open17h3bff81b1475da90cE, symObjAddr: 0x25000, symBinAddr: 0x100020804, symSize: 0x244 }
  - { offset: 0x4DD16, size: 0x8, addend: 0x0, symName: __ZN3std5alloc24default_alloc_error_hook17h51501e062971cbd1E, symObjAddr: 0x39EE8, symBinAddr: 0x10002467C, symSize: 0x13C }
  - { offset: 0x4DF59, size: 0x8, addend: 0x0, symName: ___rdl_alloc, symObjAddr: 0x3A024, symBinAddr: 0x1000247B8, symSize: 0x6C }
  - { offset: 0x4DFEB, size: 0x8, addend: 0x0, symName: ___rdl_dealloc, symObjAddr: 0x3A090, symBinAddr: 0x100024824, symSize: 0x10 }
  - { offset: 0x4E01B, size: 0x8, addend: 0x0, symName: ___rdl_realloc, symObjAddr: 0x3A0A0, symBinAddr: 0x100024834, symSize: 0xB0 }
  - { offset: 0x4E119, size: 0x8, addend: 0x0, symName: ___rdl_alloc_zeroed, symObjAddr: 0x3A150, symBinAddr: 0x1000248E4, symSize: 0x90 }
  - { offset: 0x4E1CD, size: 0x8, addend: 0x0, symName: __ZN3std5alloc8rust_oom17h688c7a6ff0ff2a04E, symObjAddr: 0x484A0, symBinAddr: 0x100027B04, symSize: 0x2C }
  - { offset: 0x4E21B, size: 0x8, addend: 0x0, symName: ___rg_oom, symObjAddr: 0x484CC, symBinAddr: 0x100027B30, symSize: 0x18 }
  - { offset: 0x4E2CB, size: 0x8, addend: 0x0, symName: '__ZN9addr2line8function17Function$LT$R$GT$14parse_children17hde6185226aa4bed3E', symObjAddr: 0x1DE14, symBinAddr: 0x10001E84C, symSize: 0x10A4 }
  - { offset: 0x4F77C, size: 0x8, addend: 0x0, symName: __ZN9addr2line8function10name_entry17h167ec9fef242540bE, symObjAddr: 0x1DAAC, symBinAddr: 0x10001E4E4, symSize: 0x368 }
  - { offset: 0x4FB7C, size: 0x8, addend: 0x0, symName: __ZN9addr2line8function9name_attr17hcc4d726c07aff866E, symObjAddr: 0x1EEB8, symBinAddr: 0x10001F8F0, symSize: 0x1C8 }
  - { offset: 0x4FD03, size: 0x8, addend: 0x0, symName: __ZN9addr2line11render_file17hcf09afdcf2e7d9a6E, symObjAddr: 0x19EBC, symBinAddr: 0x10001A8F4, symSize: 0x4C0 }
  - { offset: 0x50594, size: 0x8, addend: 0x0, symName: '__ZN9addr2line16Context$LT$R$GT$9find_unit17h411a1dc3d9e5296eE', symObjAddr: 0x1A37C, symBinAddr: 0x10001ADB4, symSize: 0x168 }
  - { offset: 0x5078B, size: 0x8, addend: 0x0, symName: '__ZN9addr2line16ResUnit$LT$R$GT$25find_function_or_location17h2942d2d40cb21dbcE', symObjAddr: 0x1A4E4, symBinAddr: 0x10001AF1C, symSize: 0x3B4 }
  - { offset: 0x50BAC, size: 0x8, addend: 0x0, symName: '__ZN9addr2line16ResUnit$LT$R$GT$25find_function_or_location28_$u7b$$u7b$closure$u7d$$u7d$17h8e051fcec327e5a4E', symObjAddr: 0x1A898, symBinAddr: 0x10001B2D0, symSize: 0x1664 }
  - { offset: 0x5365A, size: 0x8, addend: 0x0, symName: '__ZN9addr2line18FrameIter$LT$R$GT$4next17h796233074eafc71cE', symObjAddr: 0x1BEFC, symBinAddr: 0x10001C934, symSize: 0x2FC }
  - { offset: 0x53B15, size: 0x8, addend: 0x0, symName: '__ZN9addr2line30LoopingLookup$LT$T$C$L$C$F$GT$10new_lookup17h3c45f0cf52cf3c29E', symObjAddr: 0x1C1F8, symBinAddr: 0x10001CC30, symSize: 0x40C }
  - { offset: 0x53FFA, size: 0x8, addend: 0x0, symName: __ZN9addr2line5Lines5parse17h72a77ae55fe77308E, symObjAddr: 0x1C604, symBinAddr: 0x10001D03C, symSize: 0x14A8 }
  - { offset: 0x56CBB, size: 0x8, addend: 0x0, symName: __ZN5gimli4read6reader6Reader11read_offset17h850656ff59cfae29E, symObjAddr: 0x17A1C, symBinAddr: 0x100018A50, symSize: 0xBC }
  - { offset: 0x56EF5, size: 0x8, addend: 0x0, symName: __ZN5gimli4read6reader6Reader12read_sleb12817h80ef41f40dcdce5eE, symObjAddr: 0x17AD8, symBinAddr: 0x100018B0C, symSize: 0x21C }
  - { offset: 0x56FE1, size: 0x8, addend: 0x0, symName: __ZN5gimli4read6reader6Reader12read_uleb12817ha5def26e7a87e851E, symObjAddr: 0x17CF4, symBinAddr: 0x100018D28, symSize: 0xB0 }
  - { offset: 0x57095, size: 0x8, addend: 0x0, symName: __ZN5gimli4read6reader6Reader17read_sized_offset17hdb8622688fdf4d51E, symObjAddr: 0x17DA4, symBinAddr: 0x100018DD8, symSize: 0xEC }
  - { offset: 0x574BE, size: 0x8, addend: 0x0, symName: '__ZN5gimli4read4unit32AttributeValue$LT$R$C$Offset$GT$11udata_value17hb14a49ba40621992E', symObjAddr: 0x14EE8, symBinAddr: 0x100015F1C, symSize: 0x90 }
  - { offset: 0x57513, size: 0x8, addend: 0x0, symName: __ZN5gimli4read4unit15parse_attribute17hfce471934023f00fE, symObjAddr: 0x131C8, symBinAddr: 0x1000141FC, symSize: 0xF70 }
  - { offset: 0x5A1D9, size: 0x8, addend: 0x0, symName: __ZN5gimli4read4unit15skip_attributes17h3b83ebe016339b58E, symObjAddr: 0x14138, symBinAddr: 0x10001516C, symSize: 0x520 }
  - { offset: 0x5ABEA, size: 0x8, addend: 0x0, symName: '__ZN5gimli4read4unit18Attribute$LT$R$GT$5value17h33dd726d5d83f96bE', symObjAddr: 0x14658, symBinAddr: 0x10001568C, symSize: 0x5DC }
  - { offset: 0x5B149, size: 0x8, addend: 0x0, symName: '__ZN5gimli4read4unit22EntriesCursor$LT$R$GT$10next_entry17hdf7f0e2785b37958E', symObjAddr: 0x14C34, symBinAddr: 0x100015C68, symSize: 0x2B4 }
  - { offset: 0x5B6B1, size: 0x8, addend: 0x0, symName: '__ZN5gimli4read4unit33DebugInfoUnitHeadersIter$LT$R$GT$4next17h93242ffae35da06cE', symObjAddr: 0x14F78, symBinAddr: 0x100015FAC, symSize: 0x4D4 }
  - { offset: 0x5C816, size: 0x8, addend: 0x0, symName: '__ZN90_$LT$gimli..read..unit..AttributeValue$LT$R$C$Offset$GT$$u20$as$u20$core..clone..Clone$GT$5clone17h9732af948169f784E', symObjAddr: 0x19934, symBinAddr: 0x10001A424, symSize: 0x68 }
  - { offset: 0x5C92A, size: 0x8, addend: 0x0, symName: __ZN5gimli4read4line13parse_file_v517h590cae061277be4cE, symObjAddr: 0x12080, symBinAddr: 0x1000130B4, symSize: 0x278 }
  - { offset: 0x5CAA0, size: 0x8, addend: 0x0, symName: __ZN5gimli4read4line15FileEntryFormat5parse17hf011302f2bc629f6E, symObjAddr: 0x122F8, symBinAddr: 0x10001332C, symSize: 0x370 }
  - { offset: 0x5D2C2, size: 0x8, addend: 0x0, symName: __ZN5gimli4read4line15parse_attribute17h348343734ec59cc5E, symObjAddr: 0x12668, symBinAddr: 0x10001369C, symSize: 0x868 }
  - { offset: 0x5EA55, size: 0x8, addend: 0x0, symName: __ZN5gimli4read4line18parse_directory_v517h4b2c642c7ea66aebE, symObjAddr: 0x12ED0, symBinAddr: 0x100013F04, symSize: 0xE8 }
  - { offset: 0x5EAE4, size: 0x8, addend: 0x0, symName: '__ZN5gimli4read4line27FileEntry$LT$R$C$Offset$GT$5parse17hc7653d33f50298ccE', symObjAddr: 0x12FB8, symBinAddr: 0x100013FEC, symSize: 0x210 }
  - { offset: 0x5EDBF, size: 0x8, addend: 0x0, symName: '__ZN93_$LT$gimli..read..line..LineProgramHeader$LT$R$C$Offset$GT$$u20$as$u20$core..clone..Clone$GT$5clone17h9f7da5110b14ea7fE', symObjAddr: 0x1999C, symBinAddr: 0x10001A48C, symSize: 0x468 }
  - { offset: 0x5F9A3, size: 0x8, addend: 0x0, symName: '__ZN5gimli4read5dwarf14Dwarf$LT$R$GT$11attr_string17hc9ef448b811739bbE', symObjAddr: 0x17154, symBinAddr: 0x100018188, symSize: 0x1E8 }
  - { offset: 0x601AF, size: 0x8, addend: 0x0, symName: '__ZN5gimli4read5dwarf13Unit$LT$R$GT$3new17h50b7467c995651f8E', symObjAddr: 0x1544C, symBinAddr: 0x100016480, symSize: 0x1D08 }
  - { offset: 0x63CC3, size: 0x8, addend: 0x0, symName: '__ZN5gimli4read5index18UnitIndex$LT$R$GT$5parse17haa9ab30f9a0bf4eaE', symObjAddr: 0x1733C, symBinAddr: 0x100018370, symSize: 0x6E0 }
  - { offset: 0x64298, size: 0x8, addend: 0x0, symName: '__ZN5gimli4read7aranges30ArangeHeader$LT$R$C$Offset$GT$5parse17hf19a2e7a2068f89eE', symObjAddr: 0x17E90, symBinAddr: 0x100018EC4, symSize: 0x29C }
  - { offset: 0x64AD8, size: 0x8, addend: 0x0, symName: '__ZN5gimli4read8rnglists20RngListIter$LT$R$GT$4next17h688fad0081f63134E', symObjAddr: 0x1812C, symBinAddr: 0x100019160, symSize: 0xC3C }
  - { offset: 0x67953, size: 0x8, addend: 0x0, symName: __ZN6object4read7archive13ArchiveMember5parse17h6de71010798f1df5E, symObjAddr: 0x19224, symBinAddr: 0x100019DB8, symSize: 0x41C }
  - { offset: 0x684D7, size: 0x8, addend: 0x0, symName: __ZN6object4read7archive23parse_bsd_extended_name17h550a267101d0034eE, symObjAddr: 0x19640, symBinAddr: 0x10001A1D4, symSize: 0x250 }
  - { offset: 0x69299, size: 0x8, addend: 0x0, symName: _OUTLINED_FUNCTION_0, symObjAddr: 0x4E4C4, symBinAddr: 0x10002DA48, symSize: 0x10 }
  - { offset: 0x692B1, size: 0x8, addend: 0x0, symName: _OUTLINED_FUNCTION_1, symObjAddr: 0x4E4D4, symBinAddr: 0x10002DA58, symSize: 0x24 }
  - { offset: 0x692C9, size: 0x8, addend: 0x0, symName: _OUTLINED_FUNCTION_2, symObjAddr: 0x4E4F8, symBinAddr: 0x10002DA7C, symSize: 0x8 }
  - { offset: 0x692E1, size: 0x8, addend: 0x0, symName: _OUTLINED_FUNCTION_3, symObjAddr: 0x4E500, symBinAddr: 0x10002DA84, symSize: 0x8 }
  - { offset: 0x692F9, size: 0x8, addend: 0x0, symName: _OUTLINED_FUNCTION_4, symObjAddr: 0x4E508, symBinAddr: 0x10002DA8C, symSize: 0xC }
  - { offset: 0x69311, size: 0x8, addend: 0x0, symName: _OUTLINED_FUNCTION_5, symObjAddr: 0x4E514, symBinAddr: 0x10002DA98, symSize: 0x8 }
  - { offset: 0x69329, size: 0x8, addend: 0x0, symName: _OUTLINED_FUNCTION_6, symObjAddr: 0x4E51C, symBinAddr: 0x10002DAA0, symSize: 0x8 }
  - { offset: 0x69341, size: 0x8, addend: 0x0, symName: _OUTLINED_FUNCTION_7, symObjAddr: 0x4E524, symBinAddr: 0x10002DAA8, symSize: 0x8 }
  - { offset: 0x69376, size: 0x8, addend: 0x0, symName: ___rust_panic_cleanup, symObjAddr: 0x0, symBinAddr: 0x10002DAB0, symSize: 0x20 }
  - { offset: 0x69389, size: 0x8, addend: 0x0, symName: ___rust_panic_cleanup, symObjAddr: 0x0, symBinAddr: 0x10002DAB0, symSize: 0x20 }
  - { offset: 0x6939F, size: 0x8, addend: 0x0, symName: ___rust_start_panic, symObjAddr: 0x20, symBinAddr: 0x10002DAD0, symSize: 0xC }
  - { offset: 0x693B9, size: 0x8, addend: 0x0, symName: __ZN11panic_abort18__rust_start_panic5abort17hae44af1961b5be1dE, symObjAddr: 0x2C, symBinAddr: 0x10002DADC, symSize: 0xC }
  - { offset: 0x694BD, size: 0x8, addend: 0x0, symName: '__ZN69_$LT$core..alloc..layout..LayoutError$u20$as$u20$core..fmt..Debug$GT$3fmt17h812aa4185421a0b7E', symObjAddr: 0xFC, symBinAddr: 0x100036270, symSize: 0x20 }
  - { offset: 0x697FD, size: 0x8, addend: 0x0, symName: __ZN5alloc7raw_vec17capacity_overflow17h5daf3a0631a38371E, symObjAddr: 0x11C, symBinAddr: 0x100036290, symSize: 0x34 }
  - { offset: 0x6983D, size: 0x8, addend: 0x0, symName: '__ZN5alloc7raw_vec19RawVec$LT$T$C$A$GT$8grow_one17h5e3f2f661beba17fE', symObjAddr: 0x150, symBinAddr: 0x1000362C4, symSize: 0xB4 }
  - { offset: 0x699EC, size: 0x8, addend: 0x0, symName: '__ZN5alloc7raw_vec20RawVecInner$LT$A$GT$7reserve21do_reserve_and_handle17hccdb88f65c2dd428E', symObjAddr: 0x204, symBinAddr: 0x10003C5C8, symSize: 0xB0 }
  - { offset: 0x69B18, size: 0x8, addend: 0x0, symName: __ZN5alloc7raw_vec11finish_grow17h3e409e685f876440E, symObjAddr: 0x2B4, symBinAddr: 0x10003C678, symSize: 0x88 }
  - { offset: 0x69B8D, size: 0x8, addend: 0x0, symName: __ZN5alloc7raw_vec12handle_error17hd28e96ce0f7bdaceE, symObjAddr: 0x33C, symBinAddr: 0x10003C700, symSize: 0x18 }
  - { offset: 0x69C7C, size: 0x8, addend: 0x0, symName: __ZN5alloc5alloc18handle_alloc_error17hd7dc4b576a841fcaE, symObjAddr: 0x354, symBinAddr: 0x10003C718, symSize: 0x18 }
  - { offset: 0x69D02, size: 0x8, addend: 0x0, symName: '__ZN93_$LT$alloc..collections..btree..mem..replace..PanicGuard$u20$as$u20$core..ops..drop..Drop$GT$4drop17he7bd9819bd4920cbE', symObjAddr: 0xD48, symBinAddr: 0x100036378, symSize: 0xC }
  - { offset: 0x69E4A, size: 0x8, addend: 0x0, symName: __ZN5alloc6string6String15from_utf8_lossy17h2efcb30302cdbdd8E, symObjAddr: 0x2E64, symBinAddr: 0x100036604, symSize: 0x238 }
  - { offset: 0x6A396, size: 0x8, addend: 0x0, symName: '__ZN98_$LT$alloc..string..String$u20$as$u20$core..convert..From$LT$alloc..borrow..Cow$LT$str$GT$$GT$$GT$4from17h3178574b5b627611E', symObjAddr: 0x4CA4, symBinAddr: 0x10003683C, symSize: 0xBC }
  - { offset: 0x6A5BB, size: 0x8, addend: 0x0, symName: '__ZN72_$LT$$RF$str$u20$as$u20$alloc..ffi..c_str..CString..new..SpecNewImpl$GT$13spec_new_impl17he799e237f5769890E', symObjAddr: 0xDE0, symBinAddr: 0x100036384, symSize: 0x11C }
  - { offset: 0x6A7FB, size: 0x8, addend: 0x0, symName: __ZN5alloc3ffi5c_str7CString19_from_vec_unchecked17hef122dba61cb1d38E, symObjAddr: 0x1048, symBinAddr: 0x1000364A0, symSize: 0x164 }
  - { offset: 0x6AB3A, size: 0x8, addend: 0x0, symName: __ZN5alloc4sync32arcinner_layout_for_value_layout17h62623ff629c43ea9E, symObjAddr: 0x5060, symBinAddr: 0x1000368F8, symSize: 0x74 }
  - { offset: 0x6AE23, size: 0x8, addend: 0x0, symName: __ZN4core3num20from_str_radix_panic8do_panic7runtime17he203c78c909d22faE, symObjAddr: 0x15D4C, symBinAddr: 0x10003A868, symSize: 0x44 }
  - { offset: 0x6AE55, size: 0x8, addend: 0x0, symName: __ZN4core3num20from_str_radix_panic17ha9da122e309f940cE, symObjAddr: 0x4294, symBinAddr: 0x10003C730, symSize: 0xC }
  - { offset: 0x6B160, size: 0x8, addend: 0x0, symName: __ZN4core5slice5index26slice_start_index_len_fail8do_panic7runtime17h973fd889d81e5870E, symObjAddr: 0x1A36C, symBinAddr: 0x10003B4A0, symSize: 0x50 }
  - { offset: 0x6B193, size: 0x8, addend: 0x0, symName: __ZN4core5slice5index26slice_start_index_len_fail17hd534b6b14553cb25E, symObjAddr: 0xE39C, symBinAddr: 0x10003CB50, symSize: 0xC }
  - { offset: 0x6B1D8, size: 0x8, addend: 0x0, symName: __ZN4core5slice5index24slice_end_index_len_fail8do_panic7runtime17hf1d7ed14e20a290eE, symObjAddr: 0x1A3BC, symBinAddr: 0x10003B4F0, symSize: 0x50 }
  - { offset: 0x6B20B, size: 0x8, addend: 0x0, symName: __ZN4core5slice5index24slice_end_index_len_fail17hb5d58104add3a660E, symObjAddr: 0xE3A8, symBinAddr: 0x10003CB5C, symSize: 0xC }
  - { offset: 0x6B250, size: 0x8, addend: 0x0, symName: __ZN4core5slice5index22slice_index_order_fail8do_panic7runtime17h928f0bbaed05433fE, symObjAddr: 0x1A40C, symBinAddr: 0x10003B540, symSize: 0x50 }
  - { offset: 0x6B283, size: 0x8, addend: 0x0, symName: __ZN4core5slice5index22slice_index_order_fail17ha82730ca4bcf6962E, symObjAddr: 0xE3B4, symBinAddr: 0x10003CB68, symSize: 0xC }
  - { offset: 0x6B2B2, size: 0x8, addend: 0x0, symName: __ZN4core5slice5index29slice_end_index_overflow_fail17hfcdea499e51ae46bE, symObjAddr: 0xE3F4, symBinAddr: 0x10003CB74, symSize: 0x34 }
  - { offset: 0x6B5E4, size: 0x8, addend: 0x0, symName: __ZN4core5slice6memchr14memchr_aligned17h548a577564a4a6f1E, symObjAddr: 0xDCEC, symBinAddr: 0x1000388B0, symSize: 0xE8 }
  - { offset: 0x6B6D4, size: 0x8, addend: 0x0, symName: __ZN4core5slice6memchr7memrchr17h56254d77874228b8E, symObjAddr: 0xDDD4, symBinAddr: 0x100038998, symSize: 0x120 }
  - { offset: 0x6B826, size: 0x8, addend: 0x0, symName: __ZN4core5slice4sort6stable5drift11sqrt_approx17hdbcf5037372b25ceE, symObjAddr: 0xDEF4, symBinAddr: 0x100038AB8, symSize: 0x38 }
  - { offset: 0x6B8A2, size: 0x8, addend: 0x0, symName: __ZN4core5slice4sort6shared9smallsort22panic_on_ord_violation17h732cdad95b134ff0E, symObjAddr: 0xDF2C, symBinAddr: 0x10003CB18, symSize: 0x38 }
  - { offset: 0x6BAB3, size: 0x8, addend: 0x0, symName: '__ZN42_$LT$str$u20$as$u20$core..fmt..Display$GT$3fmt17h87d1a02f4f40705aE', symObjAddr: 0xD9A4, symBinAddr: 0x100038630, symSize: 0x20 }
  - { offset: 0x6BC65, size: 0x8, addend: 0x0, symName: __ZN4core3fmt9Formatter12pad_integral17he2eacce7dd9117acE, symObjAddr: 0xB17C, symBinAddr: 0x10003781C, symSize: 0x3D4 }
  - { offset: 0x6BF58, size: 0x8, addend: 0x0, symName: __ZN4core3fmt9Formatter3pad17hb6e6a9ab85784dc8E, symObjAddr: 0xB5CC, symBinAddr: 0x100037C6C, symSize: 0x370 }
  - { offset: 0x6C40E, size: 0x8, addend: 0x0, symName: __ZN4core3fmt9Formatter9write_str17h7c657d24e35011b6E, symObjAddr: 0xBD8C, symBinAddr: 0x100037FDC, symSize: 0x1C }
  - { offset: 0x6C421, size: 0x8, addend: 0x0, symName: __ZN4core3fmt9Formatter12debug_struct17h0edfcd911563680eE, symObjAddr: 0xBDA8, symBinAddr: 0x100037FF8, symSize: 0x3C }
  - { offset: 0x6C45F, size: 0x8, addend: 0x0, symName: __ZN4core3fmt9Formatter26debug_struct_field1_finish17h70b49879e46ed26dE, symObjAddr: 0xBDE4, symBinAddr: 0x100038034, symSize: 0xD0 }
  - { offset: 0x6C534, size: 0x8, addend: 0x0, symName: __ZN4core3fmt9Formatter26debug_struct_field2_finish17hff85b6c7b6f6d2eeE, symObjAddr: 0xBEB4, symBinAddr: 0x100038104, symSize: 0x104 }
  - { offset: 0x6C609, size: 0x8, addend: 0x0, symName: __ZN4core3fmt9Formatter11debug_tuple17hd8300fd3dc1d0c61E, symObjAddr: 0xC4C8, symBinAddr: 0x100038208, symSize: 0x50 }
  - { offset: 0x6C65C, size: 0x8, addend: 0x0, symName: __ZN4core3fmt9Formatter10debug_list17hf1c6cdcbdf1f3ba1E, symObjAddr: 0xD460, symBinAddr: 0x100038258, symSize: 0x48 }
  - { offset: 0x6C709, size: 0x8, addend: 0x0, symName: __ZN4core3fmt8builders11DebugStruct5field17ha978a5d2cff493aaE, symObjAddr: 0x7DAC, symBinAddr: 0x10003701C, symSize: 0x1B8 }
  - { offset: 0x6C907, size: 0x8, addend: 0x0, symName: __ZN4core3fmt8builders11DebugStruct6finish17h4b9507155898afe7E, symObjAddr: 0x8028, symBinAddr: 0x1000371D4, symSize: 0x80 }
  - { offset: 0x6CA01, size: 0x8, addend: 0x0, symName: '__ZN68_$LT$core..fmt..builders..PadAdapter$u20$as$u20$core..fmt..Write$GT$9write_str17hd4d2932c4f16837dE', symObjAddr: 0x7ADC, symBinAddr: 0x100036D4C, symSize: 0x250 }
  - { offset: 0x6CCAB, size: 0x8, addend: 0x0, symName: '__ZN68_$LT$core..fmt..builders..PadAdapter$u20$as$u20$core..fmt..Write$GT$10write_char17h6fc8a5b2545fc2c0E', symObjAddr: 0x7D2C, symBinAddr: 0x100036F9C, symSize: 0x80 }
  - { offset: 0x6CD29, size: 0x8, addend: 0x0, symName: __ZN4core3fmt8builders10DebugTuple5field17h9d16e7890018df25E, symObjAddr: 0x80A8, symBinAddr: 0x100037254, symSize: 0x14C }
  - { offset: 0x6CEB3, size: 0x8, addend: 0x0, symName: __ZN4core3fmt8builders10DebugTuple6finish17h7607215f7365ee22E, symObjAddr: 0x82B4, symBinAddr: 0x1000373A0, symSize: 0xB0 }
  - { offset: 0x6CFF8, size: 0x8, addend: 0x0, symName: __ZN4core3fmt8builders8DebugSet5entry17hb68fa20bb3071c4dE, symObjAddr: 0x8364, symBinAddr: 0x100037450, symSize: 0x14C }
  - { offset: 0x6D19B, size: 0x8, addend: 0x0, symName: __ZN4core3fmt8builders9DebugList6finish17h16430afb8c54a225E, symObjAddr: 0x8688, symBinAddr: 0x10003759C, symSize: 0x4C }
  - { offset: 0x6D223, size: 0x8, addend: 0x0, symName: '__ZN57_$LT$core..fmt..Formatter$u20$as$u20$core..fmt..Write$GT$10write_char17ha6b96d921d01544dE', symObjAddr: 0xD5B0, symBinAddr: 0x1000382A0, symSize: 0x1C }
  - { offset: 0x6D254, size: 0x8, addend: 0x0, symName: __ZN4core3fmt5Write9write_fmt17hcd98e1f995d59164E, symObjAddr: 0xAE44, symBinAddr: 0x1000375E8, symSize: 0x1C }
  - { offset: 0x6D370, size: 0x8, addend: 0x0, symName: '__ZN4core3fmt3num3imp51_$LT$impl$u20$core..fmt..Display$u20$for$u20$u8$GT$3fmt17h66637e91b1e589e3E', symObjAddr: 0x189A8, symBinAddr: 0x10003AFD0, symSize: 0xA8 }
  - { offset: 0x6D414, size: 0x8, addend: 0x0, symName: '__ZN4core3fmt3num3imp52_$LT$impl$u20$core..fmt..Display$u20$for$u20$i32$GT$3fmt17h4a90a4adbfd29a38E', symObjAddr: 0x18E84, symBinAddr: 0x10003B1B4, symSize: 0x14C }
  - { offset: 0x6D506, size: 0x8, addend: 0x0, symName: '__ZN4core3fmt3num3imp52_$LT$impl$u20$core..fmt..Display$u20$for$u20$u32$GT$3fmt17hd2c69ed5cafbe6b0E', symObjAddr: 0x18D48, symBinAddr: 0x10003B078, symSize: 0x13C }
  - { offset: 0x6D5AA, size: 0x8, addend: 0x0, symName: '__ZN4core3fmt3num3imp52_$LT$impl$u20$core..fmt..Display$u20$for$u20$u64$GT$3fmt17hf38c5fc9304f84d8E', symObjAddr: 0x18FD0, symBinAddr: 0x10003B300, symSize: 0x13C }
  - { offset: 0x6D673, size: 0x8, addend: 0x0, symName: '__ZN4core3fmt3num52_$LT$impl$u20$core..fmt..LowerHex$u20$for$u20$i8$GT$3fmt17h1be4c47b66a40205E', symObjAddr: 0x17AD8, symBinAddr: 0x10003A974, symSize: 0x80 }
  - { offset: 0x6D71E, size: 0x8, addend: 0x0, symName: '__ZN4core3fmt3num52_$LT$impl$u20$core..fmt..UpperHex$u20$for$u20$i8$GT$3fmt17h700c60c98d678bfeE', symObjAddr: 0x17B58, symBinAddr: 0x10003A9F4, symSize: 0x80 }
  - { offset: 0x6D7ED, size: 0x8, addend: 0x0, symName: '__ZN4core3fmt3num53_$LT$impl$u20$core..fmt..LowerHex$u20$for$u20$i32$GT$3fmt17h214440cbc473f377E', symObjAddr: 0x17E98, symBinAddr: 0x10003AA74, symSize: 0x80 }
  - { offset: 0x6D890, size: 0x8, addend: 0x0, symName: '__ZN4core3fmt3num53_$LT$impl$u20$core..fmt..UpperHex$u20$for$u20$i32$GT$3fmt17h7a2b7f33c1e998e6E', symObjAddr: 0x17F18, symBinAddr: 0x10003AAF4, symSize: 0x80 }
  - { offset: 0x6D945, size: 0x8, addend: 0x0, symName: '__ZN4core3fmt3num53_$LT$impl$u20$core..fmt..LowerHex$u20$for$u20$i64$GT$3fmt17h3354b41e7772bf2cE', symObjAddr: 0x18078, symBinAddr: 0x10003AB74, symSize: 0x80 }
  - { offset: 0x6DA00, size: 0x8, addend: 0x0, symName: '__ZN4core3fmt3num50_$LT$impl$u20$core..fmt..Debug$u20$for$u20$u64$GT$3fmt17h8a54847e1f669e98E', symObjAddr: 0x185CC, symBinAddr: 0x10003ABF4, symSize: 0x1E8 }
  - { offset: 0x6DB9D, size: 0x8, addend: 0x0, symName: '__ZN4core3fmt3num52_$LT$impl$u20$core..fmt..Debug$u20$for$u20$usize$GT$3fmt17h8d94bb121236bd69E', symObjAddr: 0x187B4, symBinAddr: 0x10003ADDC, symSize: 0x1F4 }
  - { offset: 0x6DD36, size: 0x8, addend: 0x0, symName: '__ZN59_$LT$core..fmt..Arguments$u20$as$u20$core..fmt..Display$GT$3fmt17hb0f55c3c58af6fa5E', symObjAddr: 0xAF64, symBinAddr: 0x100037604, symSize: 0x18 }
  - { offset: 0x6DD64, size: 0x8, addend: 0x0, symName: __ZN4core3fmt5write17h37cdb50ab8af3d55E, symObjAddr: 0xAF7C, symBinAddr: 0x10003761C, symSize: 0x200 }
  - { offset: 0x6DF73, size: 0x8, addend: 0x0, symName: __ZN4core3fmt9Formatter12pad_integral12write_prefix17h7ffd7fd6760f3ed4E, symObjAddr: 0xB550, symBinAddr: 0x100037BF0, symSize: 0x7C }
  - { offset: 0x6DFB7, size: 0x8, addend: 0x0, symName: '__ZN42_$LT$$RF$T$u20$as$u20$core..fmt..Debug$GT$3fmt17h096e85207577f628E', symObjAddr: 0x1A248, symBinAddr: 0x10003B43C, symSize: 0x14 }
  - { offset: 0x6DFD1, size: 0x8, addend: 0x0, symName: '__ZN42_$LT$$RF$T$u20$as$u20$core..fmt..Debug$GT$3fmt17h0cd89424adf875eeE', symObjAddr: 0x1A25C, symBinAddr: 0x10003B450, symSize: 0x18 }
  - { offset: 0x6DFEB, size: 0x8, addend: 0x0, symName: '__ZN42_$LT$$RF$T$u20$as$u20$core..fmt..Debug$GT$3fmt17h884ca45b9bf56ddcE', symObjAddr: 0x1A274, symBinAddr: 0x10003B468, symSize: 0x1C }
  - { offset: 0x6E024, size: 0x8, addend: 0x0, symName: '__ZN40_$LT$str$u20$as$u20$core..fmt..Debug$GT$3fmt17h5319395a62073c25E', symObjAddr: 0xD630, symBinAddr: 0x1000382BC, symSize: 0x374 }
  - { offset: 0x6E479, size: 0x8, addend: 0x0, symName: '__ZN41_$LT$char$u20$as$u20$core..fmt..Debug$GT$3fmt17h05d1bd81abaf1a43E', symObjAddr: 0xD9C4, symBinAddr: 0x100038650, symSize: 0xAC }
  - { offset: 0x6E57C, size: 0x8, addend: 0x0, symName: '__ZN43_$LT$char$u20$as$u20$core..fmt..Display$GT$3fmt17h9382b8664acca86bE', symObjAddr: 0xDA70, symBinAddr: 0x1000386FC, symSize: 0xF0 }
  - { offset: 0x6E601, size: 0x8, addend: 0x0, symName: __ZN4core3fmt17pointer_fmt_inner17he4ac33e372027645E, symObjAddr: 0xDB60, symBinAddr: 0x1000387EC, symSize: 0xC4 }
  - { offset: 0x6E6BA, size: 0x8, addend: 0x0, symName: '__ZN44_$LT$$RF$T$u20$as$u20$core..fmt..Display$GT$3fmt17hdde6a98d74f51768E', symObjAddr: 0x1A2B8, symBinAddr: 0x10003B484, symSize: 0x1C }
  - { offset: 0x6E872, size: 0x8, addend: 0x0, symName: __ZN4core6option13unwrap_failed17h36089c7b3b3b33afE, symObjAddr: 0x7484, symBinAddr: 0x10003C780, symSize: 0x1C }
  - { offset: 0x6E88C, size: 0x8, addend: 0x0, symName: __ZN4core6option13expect_failed17h8f1c2a48df7a64c4E, symObjAddr: 0x74A0, symBinAddr: 0x10003C79C, symSize: 0x48 }
  - { offset: 0x6E8E3, size: 0x8, addend: 0x0, symName: '__ZN71_$LT$core..ops..range..Range$LT$Idx$GT$$u20$as$u20$core..fmt..Debug$GT$3fmt17hc9ce3c5c6e5763c7E', symObjAddr: 0x442C, symBinAddr: 0x10003696C, symSize: 0x5C }
  - { offset: 0x6EB6F, size: 0x8, addend: 0x0, symName: __ZN4core6result13unwrap_failed17hb554a75b817cbb70E, symObjAddr: 0x7A08, symBinAddr: 0x10003CABC, symSize: 0x5C }
  - { offset: 0x6EBF3, size: 0x8, addend: 0x0, symName: '__ZN63_$LT$core..cell..BorrowMutError$u20$as$u20$core..fmt..Debug$GT$3fmt17hdf1c7ebb3a5ada4bE', symObjAddr: 0x4880, symBinAddr: 0x1000369C8, symSize: 0x24 }
  - { offset: 0x6EC4F, size: 0x8, addend: 0x0, symName: __ZN4core4cell22panic_already_borrowed17h7d353449a670e04bE, symObjAddr: 0x48C4, symBinAddr: 0x10003C73C, symSize: 0x44 }
  - { offset: 0x6ECCA, size: 0x8, addend: 0x0, symName: '__ZN4core4char7methods22_$LT$impl$u20$char$GT$16escape_debug_ext17h497ac77d3221dd87E', symObjAddr: 0x49FC, symBinAddr: 0x1000369EC, symSize: 0x260 }
  - { offset: 0x6EEB8, size: 0x8, addend: 0x0, symName: __ZN4core4char7methods15encode_utf8_raw8do_panic7runtime17h0fe98f565620d73fE, symObjAddr: 0x15D9C, symBinAddr: 0x10003A8AC, symSize: 0xC8 }
  - { offset: 0x6EF2E, size: 0x8, addend: 0x0, symName: __ZN4core7unicode12unicode_data15grapheme_extend11lookup_slow17hb0697b707e3e3c47E, symObjAddr: 0x1BBB8, symBinAddr: 0x10003B5B4, symSize: 0x174 }
  - { offset: 0x6F105, size: 0x8, addend: 0x0, symName: __ZN4core7unicode12unicode_data2cc6lookup17hf45f0e562ba11044E, symObjAddr: 0x1BB94, symBinAddr: 0x10003B590, symSize: 0x24 }
  - { offset: 0x6F16C, size: 0x8, addend: 0x0, symName: __ZN4core7unicode9printable12is_printable17ha688011d3d1a4a1dE, symObjAddr: 0x11A14, symBinAddr: 0x10003A578, symSize: 0x2C0 }
  - { offset: 0x6F5A8, size: 0x8, addend: 0x0, symName: __ZN4core3ffi5c_str4CStr19from_bytes_with_nul17hc69b92b3c3ead59dE, symObjAddr: 0x5044, symBinAddr: 0x100036C4C, symSize: 0x100 }
  - { offset: 0x6F695, size: 0x8, addend: 0x0, symName: __ZN4core9panicking9panic_fmt17hd4003258f6ab7b29E, symObjAddr: 0x75D8, symBinAddr: 0x10003C7E4, symSize: 0x20 }
  - { offset: 0x6F6D8, size: 0x8, addend: 0x0, symName: __ZN4core9panicking18panic_nounwind_fmt17hd8d3f0c92bbab643E, symObjAddr: 0x75F8, symBinAddr: 0x10003C804, symSize: 0x3C }
  - { offset: 0x6F71D, size: 0x8, addend: 0x0, symName: __ZN4core9panicking5panic17h86f2c7562f835270E, symObjAddr: 0x7634, symBinAddr: 0x10003C840, symSize: 0x34 }
  - { offset: 0x6F74C, size: 0x8, addend: 0x0, symName: __ZN4core9panicking14panic_nounwind17hd38337cbf8361018E, symObjAddr: 0x7668, symBinAddr: 0x10003C874, symSize: 0x3C }
  - { offset: 0x6F77B, size: 0x8, addend: 0x0, symName: __ZN4core9panicking26panic_nounwind_nobacktrace17heba51f1bb932a249E, symObjAddr: 0x76A4, symBinAddr: 0x10003C8B0, symSize: 0x3C }
  - { offset: 0x6F7A9, size: 0x8, addend: 0x0, symName: __ZN4core9panicking18panic_bounds_check17h4fadfa91bf056b25E, symObjAddr: 0x7728, symBinAddr: 0x10003C8EC, symSize: 0x50 }
  - { offset: 0x6F7DA, size: 0x8, addend: 0x0, symName: __ZN4core9panicking19panic_cannot_unwind17h47d96b2bff7532cbE, symObjAddr: 0x7804, symBinAddr: 0x10003C93C, symSize: 0x18 }
  - { offset: 0x6F7F4, size: 0x8, addend: 0x0, symName: __ZN4core9panicking16panic_in_cleanup17h0f12492716d4fa3bE, symObjAddr: 0x781C, symBinAddr: 0x10003C954, symSize: 0x18 }
  - { offset: 0x6F80E, size: 0x8, addend: 0x0, symName: __ZN4core9panicking13assert_failed17hc970b74687d3d7f8E, symObjAddr: 0x7898, symBinAddr: 0x10003C96C, symSize: 0x24 }
  - { offset: 0x6F828, size: 0x8, addend: 0x0, symName: __ZN4core9panicking13assert_failed17he7b1cd9526d2f1d7E, symObjAddr: 0x78BC, symBinAddr: 0x10003C990, symSize: 0x24 }
  - { offset: 0x6F842, size: 0x8, addend: 0x0, symName: __ZN4core9panicking19assert_failed_inner17h5785da7a1ff2c9ddE, symObjAddr: 0x7900, symBinAddr: 0x10003C9B4, symSize: 0x108 }
  - { offset: 0x6F88F, size: 0x8, addend: 0x0, symName: __ZN4core9panicking11panic_const23panic_const_div_by_zero17hec5a43467ad56e77E, symObjAddr: 0x16568, symBinAddr: 0x10003CBE8, symSize: 0x34 }
  - { offset: 0x6F8BE, size: 0x8, addend: 0x0, symName: __ZN4core9panicking11panic_const23panic_const_rem_by_zero17hbf557e3f0de7fddaE, symObjAddr: 0x1659C, symBinAddr: 0x10003CC1C, symSize: 0x34 }
  - { offset: 0x6FA39, size: 0x8, addend: 0x0, symName: __ZN4core3str7pattern11StrSearcher3new17h4d7c09c699bba8f1E, symObjAddr: 0xFB38, symBinAddr: 0x100039708, symSize: 0x904 }
  - { offset: 0x6FD99, size: 0x8, addend: 0x0, symName: __ZN4core3str5count14do_count_chars17h06e1e9ea44e65e6aE, symObjAddr: 0xEA18, symBinAddr: 0x100038D34, symSize: 0x724 }
  - { offset: 0x700F8, size: 0x8, addend: 0x0, symName: __ZN4core3str5count23char_count_general_case17h3142e5623975cf76E, symObjAddr: 0xF13C, symBinAddr: 0x100039458, symSize: 0x2B0 }
  - { offset: 0x702A1, size: 0x8, addend: 0x0, symName: __ZN4core3str6traits23str_index_overflow_fail17haeb6a9a5345eef27E, symObjAddr: 0xFB04, symBinAddr: 0x10003CBA8, symSize: 0x34 }
  - { offset: 0x702D5, size: 0x8, addend: 0x0, symName: __ZN4core3str8converts9from_utf817h0651d1dbbdccd497E, symObjAddr: 0xE590, symBinAddr: 0x100038AF0, symSize: 0x244 }
  - { offset: 0x70355, size: 0x8, addend: 0x0, symName: '__ZN87_$LT$core..str..lossy..Utf8Chunks$u20$as$u20$core..iter..traits..iterator..Iterator$GT$4next17haf81e173e03ff9c0E', symObjAddr: 0x10820, symBinAddr: 0x10003A00C, symSize: 0x1DC }
  - { offset: 0x70558, size: 0x8, addend: 0x0, symName: __ZN4core3str16slice_error_fail17h069de0708a6d218cE, symObjAddr: 0x10AC8, symBinAddr: 0x10003CBDC, symSize: 0xC }
  - { offset: 0x70572, size: 0x8, addend: 0x0, symName: __ZN4core3str19slice_error_fail_rt17h6e7ab7c8054f9191E, symObjAddr: 0x10B08, symBinAddr: 0x10003A1E8, symSize: 0x390 }
  - { offset: 0x7080E, size: 0x8, addend: 0x0, symName: __ZN4core5alloc6layout6Layout19is_size_align_valid17h425f698026052ff5E, symObjAddr: 0x11F70, symBinAddr: 0x10003A838, symSize: 0x30 }
  - { offset: 0x7084D, size: 0x8, addend: 0x0, symName: _OUTLINED_FUNCTION_0, symObjAddr: 0x1C3D4, symBinAddr: 0x10003B728, symSize: 0x10 }
...
